
Car_Static_Architecture.elf:     file format elf32-avr

Sections:
Idx Name          Size      VMA       LMA       File off  Algn
  0 .text         00001108  00000000  00000000  00000074  2**1
                  CONTENTS, ALLOC, LOAD, READONLY, CODE
  1 .data         00000000  00800060  00800060  0000117c  2**0
                  CONTENTS, ALLOC, LOAD, DATA
  2 .bss          0000000e  00800060  00800060  0000117c  2**0
                  ALLOC
  3 .comment      00000030  00000000  00000000  0000117c  2**0
                  CONTENTS, READONLY
  4 .note.gnu.avr.deviceinfo 0000003c  00000000  00000000  000011ac  2**2
                  CONTENTS, READONLY
  5 .debug_aranges 000001f0  00000000  00000000  000011e8  2**0
                  CONTENTS, READONLY, DEBUGGING
  6 .debug_info   00002173  00000000  00000000  000013d8  2**0
                  CONTENTS, READONLY, DEBUGGING
  7 .debug_abbrev 00000eb2  00000000  00000000  0000354b  2**0
                  CONTENTS, READONLY, DEBUGGING
  8 .debug_line   000012b9  00000000  00000000  000043fd  2**0
                  CONTENTS, READONLY, DEBUGGING
  9 .debug_frame  00000494  00000000  00000000  000056b8  2**2
                  CONTENTS, READONLY, DEBUGGING
 10 .debug_str    0000080d  00000000  00000000  00005b4c  2**0
                  CONTENTS, READONLY, DEBUGGING
 11 .debug_loc    00001d85  00000000  00000000  00006359  2**0
                  CONTENTS, READONLY, DEBUGGING
 12 .debug_ranges 00000150  00000000  00000000  000080de  2**0
                  CONTENTS, READONLY, DEBUGGING

Disassembly of section .text:

00000000 <__vectors>:
       0:	0c 94 2a 00 	jmp	0x54	; 0x54 <__ctors_end>
       4:	0c 94 3c 00 	jmp	0x78	; 0x78 <__bad_interrupt>
       8:	0c 94 3c 00 	jmp	0x78	; 0x78 <__bad_interrupt>
       c:	0c 94 01 02 	jmp	0x402	; 0x402 <__vector_3>
      10:	0c 94 3c 00 	jmp	0x78	; 0x78 <__bad_interrupt>
      14:	0c 94 3c 00 	jmp	0x78	; 0x78 <__bad_interrupt>
      18:	0c 94 3c 00 	jmp	0x78	; 0x78 <__bad_interrupt>
      1c:	0c 94 3c 00 	jmp	0x78	; 0x78 <__bad_interrupt>
      20:	0c 94 3c 00 	jmp	0x78	; 0x78 <__bad_interrupt>
      24:	0c 94 3c 00 	jmp	0x78	; 0x78 <__bad_interrupt>
      28:	0c 94 3c 00 	jmp	0x78	; 0x78 <__bad_interrupt>
      2c:	0c 94 3c 00 	jmp	0x78	; 0x78 <__bad_interrupt>
      30:	0c 94 3c 00 	jmp	0x78	; 0x78 <__bad_interrupt>
      34:	0c 94 3c 00 	jmp	0x78	; 0x78 <__bad_interrupt>
      38:	0c 94 3c 00 	jmp	0x78	; 0x78 <__bad_interrupt>
      3c:	0c 94 3c 00 	jmp	0x78	; 0x78 <__bad_interrupt>
      40:	0c 94 3c 00 	jmp	0x78	; 0x78 <__bad_interrupt>
      44:	0c 94 3c 00 	jmp	0x78	; 0x78 <__bad_interrupt>
      48:	0c 94 3c 00 	jmp	0x78	; 0x78 <__bad_interrupt>
      4c:	0c 94 3c 00 	jmp	0x78	; 0x78 <__bad_interrupt>
      50:	0c 94 3c 00 	jmp	0x78	; 0x78 <__bad_interrupt>

00000054 <__ctors_end>:
      54:	11 24       	eor	r1, r1
      56:	1f be       	out	0x3f, r1	; 63
      58:	cf e5       	ldi	r28, 0x5F	; 95
      5a:	d8 e0       	ldi	r29, 0x08	; 8
      5c:	de bf       	out	0x3e, r29	; 62
      5e:	cd bf       	out	0x3d, r28	; 61

00000060 <__do_clear_bss>:
      60:	20 e0       	ldi	r18, 0x00	; 0
      62:	a0 e6       	ldi	r26, 0x60	; 96
      64:	b0 e0       	ldi	r27, 0x00	; 0
      66:	01 c0       	rjmp	.+2      	; 0x6a <.do_clear_bss_start>

00000068 <.do_clear_bss_loop>:
      68:	1d 92       	st	X+, r1

0000006a <.do_clear_bss_start>:
      6a:	ae 36       	cpi	r26, 0x6E	; 110
      6c:	b2 07       	cpc	r27, r18
      6e:	e1 f7       	brne	.-8      	; 0x68 <.do_clear_bss_loop>
      70:	0e 94 47 02 	call	0x48e	; 0x48e <main>
      74:	0c 94 82 08 	jmp	0x1104	; 0x1104 <_exit>

00000078 <__bad_interrupt>:
      78:	0c 94 00 00 	jmp	0	; 0x0 <__vectors>

0000007c <Car_SM_Init>:
 * Description--: Initiate the car state machine with state"stop_state",
 * -------------- And initiate steering and ultrasonic functions
*/


ERROR_STATUS Car_SM_Init(void){
      7c:	cf 93       	push	r28
	
	ERROR_STATUS state_error = E_OK ;
	
	state_error |= Steering_Init();
      7e:	0e 94 ef 03 	call	0x7de	; 0x7de <Steering_Init>
      82:	c8 2f       	mov	r28, r24
	
	state_error |= Us_Init();
      84:	0e 94 59 06 	call	0xcb2	; 0xcb2 <Us_Init>
	
	g_state=STOP_STATE ;
      88:	93 e0       	ldi	r25, 0x03	; 3
      8a:	90 93 6d 00 	sts	0x006D, r25	; 0x80006d <g_state>
	
	return state_error ;
}
      8e:	8c 2b       	or	r24, r28
      90:	cf 91       	pop	r28
      92:	08 95       	ret

00000094 <Car_SM_Update>:
 * Description--: changes car state according to the ultrasonic input
 * -------------- And represents the motors output for each state
*/


ERROR_STATUS Car_SM_Update(void){
      94:	1f 93       	push	r17
      96:	cf 93       	push	r28
      98:	df 93       	push	r29
      9a:	00 d0       	rcall	.+0      	; 0x9c <Car_SM_Update+0x8>
      9c:	cd b7       	in	r28, 0x3d	; 61
      9e:	de b7       	in	r29, 0x3e	; 62
	
	uint16_t distance;
	ERROR_STATUS state_error = E_OK ;
	
	state_error |= Us_Trigger();
      a0:	0e 94 6b 06 	call	0xcd6	; 0xcd6 <Us_Trigger>
      a4:	18 2f       	mov	r17, r24
	state_error |= Us_GetDistance(&distance);
      a6:	ce 01       	movw	r24, r28
      a8:	01 96       	adiw	r24, 0x01	; 1
      aa:	0e 94 95 06 	call	0xd2a	; 0xd2a <Us_GetDistance>
      ae:	18 2b       	or	r17, r24
	
	
	
	switch(g_state){
      b0:	80 91 6d 00 	lds	r24, 0x006D	; 0x80006d <g_state>
      b4:	81 30       	cpi	r24, 0x01	; 1
      b6:	81 f1       	breq	.+96     	; 0x118 <Car_SM_Update+0x84>
      b8:	c8 f0       	brcs	.+50     	; 0xec <Car_SM_Update+0x58>
      ba:	82 30       	cpi	r24, 0x02	; 2
      bc:	09 f4       	brne	.+2      	; 0xc0 <Car_SM_Update+0x2c>
      be:	41 c0       	rjmp	.+130    	; 0x142 <Car_SM_Update+0xae>
      c0:	83 30       	cpi	r24, 0x03	; 3
      c2:	09 f0       	breq	.+2      	; 0xc6 <Car_SM_Update+0x32>
      c4:	55 c0       	rjmp	.+170    	; 0x170 <Car_SM_Update+0xdc>
		
		case STOP_STATE :
			if (distance<DISTANCE_BACKWARDING){
      c6:	89 81       	ldd	r24, Y+1	; 0x01
      c8:	9a 81       	ldd	r25, Y+2	; 0x02
      ca:	84 31       	cpi	r24, 0x14	; 20
      cc:	91 05       	cpc	r25, r1
      ce:	20 f4       	brcc	.+8      	; 0xd8 <Car_SM_Update+0x44>
				
				g_state = BACKWARD_STATE ;
      d0:	81 e0       	ldi	r24, 0x01	; 1
      d2:	80 93 6d 00 	sts	0x006D, r24	; 0x80006d <g_state>
      d6:	4d c0       	rjmp	.+154    	; 0x172 <Car_SM_Update+0xde>
			}
			else if ((distance <= DISTANCE_TURNNING) && ( distance >= DISTANCE_BACKWARDING)){
      d8:	44 97       	sbiw	r24, 0x14	; 20
      da:	45 97       	sbiw	r24, 0x15	; 21
      dc:	20 f4       	brcc	.+8      	; 0xe6 <Car_SM_Update+0x52>
				
				g_state =TURNING_STATE ;
      de:	82 e0       	ldi	r24, 0x02	; 2
      e0:	80 93 6d 00 	sts	0x006D, r24	; 0x80006d <g_state>
      e4:	46 c0       	rjmp	.+140    	; 0x172 <Car_SM_Update+0xde>
			}else
				g_state = FORWARD_STATE ;
      e6:	10 92 6d 00 	sts	0x006D, r1	; 0x80006d <g_state>
      ea:	43 c0       	rjmp	.+134    	; 0x172 <Car_SM_Update+0xde>
			break;
			
		case FORWARD_STATE :
		
			if (distance<DISTANCE_BACKWARDING){
      ec:	89 81       	ldd	r24, Y+1	; 0x01
      ee:	9a 81       	ldd	r25, Y+2	; 0x02
      f0:	84 31       	cpi	r24, 0x14	; 20
      f2:	91 05       	cpc	r25, r1
      f4:	20 f4       	brcc	.+8      	; 0xfe <Car_SM_Update+0x6a>
				g_state = BACKWARD_STATE;
      f6:	81 e0       	ldi	r24, 0x01	; 1
      f8:	80 93 6d 00 	sts	0x006D, r24	; 0x80006d <g_state>
      fc:	3a c0       	rjmp	.+116    	; 0x172 <Car_SM_Update+0xde>
			}else if ( distance<=DISTANCE_TURNNING && distance >= DISTANCE_BACKWARDING )
      fe:	44 97       	sbiw	r24, 0x14	; 20
     100:	45 97       	sbiw	r24, 0x15	; 21
     102:	20 f4       	brcc	.+8      	; 0x10c <Car_SM_Update+0x78>
			{
				g_state=TURNING_STATE;
     104:	82 e0       	ldi	r24, 0x02	; 2
     106:	80 93 6d 00 	sts	0x006D, r24	; 0x80006d <g_state>
     10a:	33 c0       	rjmp	.+102    	; 0x172 <Car_SM_Update+0xde>
			}
			else
				state_error |= Steering_SteerCar(CAR_FORWARD,CAR_SPEED);
     10c:	6e e1       	ldi	r22, 0x1E	; 30
     10e:	81 e0       	ldi	r24, 0x01	; 1
     110:	0e 94 fa 03 	call	0x7f4	; 0x7f4 <Steering_SteerCar>
     114:	18 2b       	or	r17, r24
     116:	2d c0       	rjmp	.+90     	; 0x172 <Car_SM_Update+0xde>
			break;
				
		case BACKWARD_STATE:
		
			if (distance<DISTANCE_BACKWARDING){
     118:	89 81       	ldd	r24, Y+1	; 0x01
     11a:	9a 81       	ldd	r25, Y+2	; 0x02
     11c:	84 31       	cpi	r24, 0x14	; 20
     11e:	91 05       	cpc	r25, r1
     120:	30 f4       	brcc	.+12     	; 0x12e <Car_SM_Update+0x9a>
				state_error |= Steering_SteerCar(CAR_BACKWARD,CAR_SPEED);
     122:	6e e1       	ldi	r22, 0x1E	; 30
     124:	82 e0       	ldi	r24, 0x02	; 2
     126:	0e 94 fa 03 	call	0x7f4	; 0x7f4 <Steering_SteerCar>
     12a:	18 2b       	or	r17, r24
     12c:	22 c0       	rjmp	.+68     	; 0x172 <Car_SM_Update+0xde>
			}else if (distance <= DISTANCE_TURNNING && distance>=DISTANCE_BACKWARDING )
     12e:	44 97       	sbiw	r24, 0x14	; 20
     130:	45 97       	sbiw	r24, 0x15	; 21
     132:	20 f4       	brcc	.+8      	; 0x13c <Car_SM_Update+0xa8>
			{
				g_state=TURNING_STATE;
     134:	82 e0       	ldi	r24, 0x02	; 2
     136:	80 93 6d 00 	sts	0x006D, r24	; 0x80006d <g_state>
     13a:	1b c0       	rjmp	.+54     	; 0x172 <Car_SM_Update+0xde>
			}
			 else{
				g_state = FORWARD_STATE ;
     13c:	10 92 6d 00 	sts	0x006D, r1	; 0x80006d <g_state>
     140:	18 c0       	rjmp	.+48     	; 0x172 <Car_SM_Update+0xde>
			}
			break;
			
		case TURNING_STATE :
		
			if (distance <= DISTANCE_TURNNING && distance >= DISTANCE_BACKWARDING )
     142:	89 81       	ldd	r24, Y+1	; 0x01
     144:	9a 81       	ldd	r25, Y+2	; 0x02
     146:	9c 01       	movw	r18, r24
     148:	24 51       	subi	r18, 0x14	; 20
     14a:	31 09       	sbc	r19, r1
     14c:	25 31       	cpi	r18, 0x15	; 21
     14e:	31 05       	cpc	r19, r1
     150:	30 f4       	brcc	.+12     	; 0x15e <Car_SM_Update+0xca>
			{
				state_error |= Steering_SteerCar(CAR_LEFT,CAR_SPEED);
     152:	6e e1       	ldi	r22, 0x1E	; 30
     154:	84 e0       	ldi	r24, 0x04	; 4
     156:	0e 94 fa 03 	call	0x7f4	; 0x7f4 <Steering_SteerCar>
     15a:	18 2b       	or	r17, r24
     15c:	0a c0       	rjmp	.+20     	; 0x172 <Car_SM_Update+0xde>
			}else if (distance <DISTANCE_BACKWARDING){
     15e:	44 97       	sbiw	r24, 0x14	; 20
     160:	20 f4       	brcc	.+8      	; 0x16a <Car_SM_Update+0xd6>
				g_state = BACKWARD_STATE ;
     162:	81 e0       	ldi	r24, 0x01	; 1
     164:	80 93 6d 00 	sts	0x006D, r24	; 0x80006d <g_state>
     168:	04 c0       	rjmp	.+8      	; 0x172 <Car_SM_Update+0xde>
			}
			else
			g_state = FORWARD_STATE ;
     16a:	10 92 6d 00 	sts	0x006D, r1	; 0x80006d <g_state>
     16e:	01 c0       	rjmp	.+2      	; 0x172 <Car_SM_Update+0xde>
			
			break;
			
		default: 
		
		state_error |= E_NOK ;
     170:	11 60       	ori	r17, 0x01	; 1
	}
	
	
	return state_error ;
	
}
     172:	81 2f       	mov	r24, r17
     174:	0f 90       	pop	r0
     176:	0f 90       	pop	r0
     178:	df 91       	pop	r29
     17a:	cf 91       	pop	r28
     17c:	1f 91       	pop	r17
     17e:	08 95       	ret

00000180 <DIO_init>:
*In/Out:
*Description: This function can set the direction of a full port, a nibble
* 			  or even one pin.
*/

ERROR_STATUS DIO_init (DIO_Cfg_s *DIO_info){
     180:	fc 01       	movw	r30, r24
	
	 uint8_t a_u8_error_state = E_OK ;
	 
	 if (DIO_info->dir == HIGH )
     182:	82 81       	ldd	r24, Z+2	; 0x02
     184:	8f 3f       	cpi	r24, 0xFF	; 255
     186:	09 f5       	brne	.+66     	; 0x1ca <DIO_init+0x4a>
	{
		switch(DIO_info->GPIO){
     188:	80 81       	ld	r24, Z
     18a:	81 30       	cpi	r24, 0x01	; 1
     18c:	61 f0       	breq	.+24     	; 0x1a6 <DIO_init+0x26>
     18e:	28 f0       	brcs	.+10     	; 0x19a <DIO_init+0x1a>
     190:	82 30       	cpi	r24, 0x02	; 2
     192:	79 f0       	breq	.+30     	; 0x1b2 <DIO_init+0x32>
     194:	83 30       	cpi	r24, 0x03	; 3
     196:	99 f0       	breq	.+38     	; 0x1be <DIO_init+0x3e>
     198:	36 c0       	rjmp	.+108    	; 0x206 <DIO_init+0x86>
			
			case GPIOA :
			
			PORTA_DIR = PORTA_DIR | DIO_info->pins ;
     19a:	9a b3       	in	r25, 0x1a	; 26
     19c:	81 81       	ldd	r24, Z+1	; 0x01
     19e:	89 2b       	or	r24, r25
     1a0:	8a bb       	out	0x1a, r24	; 26
* 			  or even one pin.
*/

ERROR_STATUS DIO_init (DIO_Cfg_s *DIO_info){
	
	 uint8_t a_u8_error_state = E_OK ;
     1a2:	80 e0       	ldi	r24, 0x00	; 0
		switch(DIO_info->GPIO){
			
			case GPIOA :
			
			PORTA_DIR = PORTA_DIR | DIO_info->pins ;
			break;
     1a4:	08 95       	ret
			
			case GPIOB :
			
			PORTB_DIR = PORTB_DIR | DIO_info->pins ;
     1a6:	97 b3       	in	r25, 0x17	; 23
     1a8:	81 81       	ldd	r24, Z+1	; 0x01
     1aa:	89 2b       	or	r24, r25
     1ac:	87 bb       	out	0x17, r24	; 23
* 			  or even one pin.
*/

ERROR_STATUS DIO_init (DIO_Cfg_s *DIO_info){
	
	 uint8_t a_u8_error_state = E_OK ;
     1ae:	80 e0       	ldi	r24, 0x00	; 0
			break;
			
			case GPIOB :
			
			PORTB_DIR = PORTB_DIR | DIO_info->pins ;
			break;
     1b0:	08 95       	ret
			
			case GPIOC :
			
			PORTC_DIR = PORTC_DIR | DIO_info->pins ;
     1b2:	94 b3       	in	r25, 0x14	; 20
     1b4:	81 81       	ldd	r24, Z+1	; 0x01
     1b6:	89 2b       	or	r24, r25
     1b8:	84 bb       	out	0x14, r24	; 20
* 			  or even one pin.
*/

ERROR_STATUS DIO_init (DIO_Cfg_s *DIO_info){
	
	 uint8_t a_u8_error_state = E_OK ;
     1ba:	80 e0       	ldi	r24, 0x00	; 0
			break;
			
			case GPIOC :
			
			PORTC_DIR = PORTC_DIR | DIO_info->pins ;
			break;
     1bc:	08 95       	ret

			case GPIOD :
			
			PORTD_DIR = PORTD_DIR | DIO_info->pins ;
     1be:	91 b3       	in	r25, 0x11	; 17
     1c0:	81 81       	ldd	r24, Z+1	; 0x01
     1c2:	89 2b       	or	r24, r25
     1c4:	81 bb       	out	0x11, r24	; 17
* 			  or even one pin.
*/

ERROR_STATUS DIO_init (DIO_Cfg_s *DIO_info){
	
	 uint8_t a_u8_error_state = E_OK ;
     1c6:	80 e0       	ldi	r24, 0x00	; 0
			break;

			case GPIOD :
			
			PORTD_DIR = PORTD_DIR | DIO_info->pins ;
			break;
     1c8:	08 95       	ret
			
			default :
			a_u8_error_state |= E_NOK ;
		}
		
	} else if (DIO_info->dir == LOW)
     1ca:	81 11       	cpse	r24, r1
     1cc:	1e c0       	rjmp	.+60     	; 0x20a <DIO_init+0x8a>
	{
		switch(DIO_info->GPIO){
     1ce:	80 81       	ld	r24, Z
     1d0:	82 30       	cpi	r24, 0x02	; 2
     1d2:	59 f0       	breq	.+22     	; 0x1ea <DIO_init+0x6a>
     1d4:	83 30       	cpi	r24, 0x03	; 3
     1d6:	81 f0       	breq	.+32     	; 0x1f8 <DIO_init+0x78>
     1d8:	81 30       	cpi	r24, 0x01	; 1
     1da:	c9 f4       	brne	.+50     	; 0x20e <DIO_init+0x8e>
		PORTA_DIR = PORTA_DIR & ~(DIO_info->pins) ;
		break;
		
		case GPIOB :
		
		PORTB_DIR = PORTB_DIR & ~(DIO_info->pins) ;
     1dc:	97 b3       	in	r25, 0x17	; 23
     1de:	81 81       	ldd	r24, Z+1	; 0x01
     1e0:	80 95       	com	r24
     1e2:	89 23       	and	r24, r25
     1e4:	87 bb       	out	0x17, r24	; 23
* 			  or even one pin.
*/

ERROR_STATUS DIO_init (DIO_Cfg_s *DIO_info){
	
	 uint8_t a_u8_error_state = E_OK ;
     1e6:	80 e0       	ldi	r24, 0x00	; 0
		break;
		
		case GPIOB :
		
		PORTB_DIR = PORTB_DIR & ~(DIO_info->pins) ;
		break;
     1e8:	08 95       	ret
		
		case GPIOC :
		
		PORTC_DIR = PORTC_DIR & ~(DIO_info->pins) ;
     1ea:	94 b3       	in	r25, 0x14	; 20
     1ec:	81 81       	ldd	r24, Z+1	; 0x01
     1ee:	80 95       	com	r24
     1f0:	89 23       	and	r24, r25
     1f2:	84 bb       	out	0x14, r24	; 20
* 			  or even one pin.
*/

ERROR_STATUS DIO_init (DIO_Cfg_s *DIO_info){
	
	 uint8_t a_u8_error_state = E_OK ;
     1f4:	80 e0       	ldi	r24, 0x00	; 0
		break;
		
		case GPIOC :
		
		PORTC_DIR = PORTC_DIR & ~(DIO_info->pins) ;
		break;
     1f6:	08 95       	ret

		case GPIOD :
		
		PORTD_DIR = PORTD_DIR & ~(DIO_info->pins) ;
     1f8:	91 b3       	in	r25, 0x11	; 17
     1fa:	81 81       	ldd	r24, Z+1	; 0x01
     1fc:	80 95       	com	r24
     1fe:	89 23       	and	r24, r25
     200:	81 bb       	out	0x11, r24	; 17
* 			  or even one pin.
*/

ERROR_STATUS DIO_init (DIO_Cfg_s *DIO_info){
	
	 uint8_t a_u8_error_state = E_OK ;
     202:	80 e0       	ldi	r24, 0x00	; 0
		break;

		case GPIOD :
		
		PORTD_DIR = PORTD_DIR & ~(DIO_info->pins) ;
		break;	
     204:	08 95       	ret
			
			PORTD_DIR = PORTD_DIR | DIO_info->pins ;
			break;
			
			default :
			a_u8_error_state |= E_NOK ;
     206:	81 e0       	ldi	r24, 0x01	; 1
     208:	08 95       	ret
		a_u8_error_state |= E_NOK ;	
			
		}
		
	}else
		a_u8_error_state |= E_NOK;
     20a:	81 e0       	ldi	r24, 0x01	; 1
     20c:	08 95       	ret
		
		PORTD_DIR = PORTD_DIR & ~(DIO_info->pins) ;
		break;	
		
		default :
		a_u8_error_state |= E_NOK ;	
     20e:	81 e0       	ldi	r24, 0x01	; 1
	
	return a_u8_error_state  ;
	
	 
	
}
     210:	08 95       	ret

00000212 <DIO_Write>:

ERROR_STATUS DIO_Write (uint8_t GPIO, uint8_t pins, uint8_t value){
	
	uint8_t a_u8_error_state = E_OK ;
	
	if (value == HIGH ){
     212:	4f 3f       	cpi	r20, 0xFF	; 255
     214:	f1 f4       	brne	.+60     	; 0x252 <DIO_Write+0x40>
		switch(GPIO)
     216:	81 30       	cpi	r24, 0x01	; 1
     218:	59 f0       	breq	.+22     	; 0x230 <DIO_Write+0x1e>
     21a:	28 f0       	brcs	.+10     	; 0x226 <DIO_Write+0x14>
     21c:	82 30       	cpi	r24, 0x02	; 2
     21e:	79 f0       	breq	.+30     	; 0x23e <DIO_Write+0x2c>
     220:	83 30       	cpi	r24, 0x03	; 3
     222:	91 f0       	breq	.+36     	; 0x248 <DIO_Write+0x36>
     224:	38 c0       	rjmp	.+112    	; 0x296 <DIO_Write+0x84>
		{
			case GPIOA :
			
			PORTA_DATA  |=  pins ;
     226:	8b b3       	in	r24, 0x1b	; 27
     228:	68 2b       	or	r22, r24
     22a:	6b bb       	out	0x1b, r22	; 27
* 			  or even one pin.
*/

ERROR_STATUS DIO_Write (uint8_t GPIO, uint8_t pins, uint8_t value){
	
	uint8_t a_u8_error_state = E_OK ;
     22c:	80 e0       	ldi	r24, 0x00	; 0
		switch(GPIO)
		{
			case GPIOA :
			
			PORTA_DATA  |=  pins ;
			break;
     22e:	08 95       	ret
			
			case GPIOB :
			PORTB_DATA |=  (PORTB_DATA  & ~(pins) )| (value& pins) ;
     230:	98 b3       	in	r25, 0x18	; 24
     232:	88 b3       	in	r24, 0x18	; 24
     234:	69 2b       	or	r22, r25
     236:	68 2b       	or	r22, r24
     238:	68 bb       	out	0x18, r22	; 24
* 			  or even one pin.
*/

ERROR_STATUS DIO_Write (uint8_t GPIO, uint8_t pins, uint8_t value){
	
	uint8_t a_u8_error_state = E_OK ;
     23a:	80 e0       	ldi	r24, 0x00	; 0
			
			case GPIOB :
			PORTB_DATA |=  (PORTB_DATA  & ~(pins) )| (value& pins) ;
			 
			 //PORTB_DATA =value;
			break;
     23c:	08 95       	ret
			
			case GPIOC :
			
			PORTC_DATA |= pins ;
     23e:	85 b3       	in	r24, 0x15	; 21
     240:	68 2b       	or	r22, r24
     242:	65 bb       	out	0x15, r22	; 21
* 			  or even one pin.
*/

ERROR_STATUS DIO_Write (uint8_t GPIO, uint8_t pins, uint8_t value){
	
	uint8_t a_u8_error_state = E_OK ;
     244:	80 e0       	ldi	r24, 0x00	; 0
			break;
			
			case GPIOC :
			
			PORTC_DATA |= pins ;
			break;
     246:	08 95       	ret

			case GPIOD :
			
			PORTD_DATA |=  pins ;
     248:	82 b3       	in	r24, 0x12	; 18
     24a:	68 2b       	or	r22, r24
     24c:	62 bb       	out	0x12, r22	; 18
* 			  or even one pin.
*/

ERROR_STATUS DIO_Write (uint8_t GPIO, uint8_t pins, uint8_t value){
	
	uint8_t a_u8_error_state = E_OK ;
     24e:	80 e0       	ldi	r24, 0x00	; 0
			break;

			case GPIOD :
			
			PORTD_DATA |=  pins ;
			break;
     250:	08 95       	ret
			
			 default :
			a_u8_error_state |= E_NOK ;

		}
		}else if(value == LOW) {
     252:	41 11       	cpse	r20, r1
     254:	22 c0       	rjmp	.+68     	; 0x29a <DIO_Write+0x88>
			
		switch(GPIO){	
     256:	81 30       	cpi	r24, 0x01	; 1
     258:	61 f0       	breq	.+24     	; 0x272 <DIO_Write+0x60>
     25a:	28 f0       	brcs	.+10     	; 0x266 <DIO_Write+0x54>
     25c:	82 30       	cpi	r24, 0x02	; 2
     25e:	79 f0       	breq	.+30     	; 0x27e <DIO_Write+0x6c>
     260:	83 30       	cpi	r24, 0x03	; 3
     262:	99 f0       	breq	.+38     	; 0x28a <DIO_Write+0x78>
     264:	1c c0       	rjmp	.+56     	; 0x29e <DIO_Write+0x8c>
		
		case GPIOA :
		
		PORTA_DATA &= ~(pins) ;
     266:	8b b3       	in	r24, 0x1b	; 27
     268:	60 95       	com	r22
     26a:	68 23       	and	r22, r24
     26c:	6b bb       	out	0x1b, r22	; 27
* 			  or even one pin.
*/

ERROR_STATUS DIO_Write (uint8_t GPIO, uint8_t pins, uint8_t value){
	
	uint8_t a_u8_error_state = E_OK ;
     26e:	80 e0       	ldi	r24, 0x00	; 0
		switch(GPIO){	
		
		case GPIOA :
		
		PORTA_DATA &= ~(pins) ;
		break;
     270:	08 95       	ret
		
		case GPIOB :
		
		PORTB_DATA &=  ~(pins) ;
     272:	88 b3       	in	r24, 0x18	; 24
     274:	60 95       	com	r22
     276:	68 23       	and	r22, r24
     278:	68 bb       	out	0x18, r22	; 24
* 			  or even one pin.
*/

ERROR_STATUS DIO_Write (uint8_t GPIO, uint8_t pins, uint8_t value){
	
	uint8_t a_u8_error_state = E_OK ;
     27a:	80 e0       	ldi	r24, 0x00	; 0
		break;
		
		case GPIOB :
		
		PORTB_DATA &=  ~(pins) ;
		break;
     27c:	08 95       	ret
		
		case GPIOC :
		
		PORTC_DATA &= ~(pins) ;
     27e:	85 b3       	in	r24, 0x15	; 21
     280:	60 95       	com	r22
     282:	68 23       	and	r22, r24
     284:	65 bb       	out	0x15, r22	; 21
* 			  or even one pin.
*/

ERROR_STATUS DIO_Write (uint8_t GPIO, uint8_t pins, uint8_t value){
	
	uint8_t a_u8_error_state = E_OK ;
     286:	80 e0       	ldi	r24, 0x00	; 0
		break;
		
		case GPIOC :
		
		PORTC_DATA &= ~(pins) ;
		break;
     288:	08 95       	ret

		case GPIOD :
		
		PORTD_DATA &= ~(pins) ;
     28a:	82 b3       	in	r24, 0x12	; 18
     28c:	60 95       	com	r22
     28e:	68 23       	and	r22, r24
     290:	62 bb       	out	0x12, r22	; 18
* 			  or even one pin.
*/

ERROR_STATUS DIO_Write (uint8_t GPIO, uint8_t pins, uint8_t value){
	
	uint8_t a_u8_error_state = E_OK ;
     292:	80 e0       	ldi	r24, 0x00	; 0
		break;

		case GPIOD :
		
		PORTD_DATA &= ~(pins) ;
		break;
     294:	08 95       	ret
			
			PORTD_DATA |=  pins ;
			break;
			
			 default :
			a_u8_error_state |= E_NOK ;
     296:	81 e0       	ldi	r24, 0x01	; 1
     298:	08 95       	ret
		 default :
		a_u8_error_state |= E_NOK ;
		
			} 
		}else 
		a_u8_error_state |= E_NOK ;
     29a:	81 e0       	ldi	r24, 0x01	; 1
     29c:	08 95       	ret
		
		PORTD_DATA &= ~(pins) ;
		break;
		
		 default :
		a_u8_error_state |= E_NOK ;
     29e:	81 e0       	ldi	r24, 0x01	; 1
		
			} 
		}else 
		a_u8_error_state |= E_NOK ;
	return a_u8_error_state  ;
}
     2a0:	08 95       	ret

000002a2 <Icu_Init>:
 *				  - E_NOK : not initialized successfully				  *
 * Description  : Initializes the ICU by initializing the timer			  *
 * 				                                     					  *
 **************************************************************************/

ERROR_STATUS Icu_Init(Icu_cfg_s * Icu_Cfg){
     2a2:	cf 93       	push	r28
     2a4:	df 93       	push	r29
     2a6:	00 d0       	rcall	.+0      	; 0x2a8 <Icu_Init+0x6>
     2a8:	00 d0       	rcall	.+0      	; 0x2aa <Icu_Init+0x8>
     2aa:	00 d0       	rcall	.+0      	; 0x2ac <Icu_Init+0xa>
     2ac:	cd b7       	in	r28, 0x3d	; 61
     2ae:	de b7       	in	r29, 0x3e	; 62
		uint8_t a_u8_error_state = E_OK ;

	
		Timer_cfg_s Timer_cfg ;
		
		if (Icu_Cfg == NULL)
     2b0:	00 97       	sbiw	r24, 0x00	; 0
     2b2:	89 f0       	breq	.+34     	; 0x2d6 <Icu_Init+0x34>
		{
			a_u8_error_state |= E_NOK;
		}else{
			
			g_interruptCH_No = Icu_Cfg->ICU_Ch_No ;
     2b4:	fc 01       	movw	r30, r24
     2b6:	20 81       	ld	r18, Z
     2b8:	20 93 64 00 	sts	0x0064, r18	; 0x800064 <g_interruptCH_No>

			
			switch(Icu_Cfg->ICU_Ch_Timer){
     2bc:	81 81       	ldd	r24, Z+1	; 0x01
     2be:	81 11       	cpse	r24, r1
     2c0:	0c c0       	rjmp	.+24     	; 0x2da <Icu_Init+0x38>
				case ICU_TIMER_CH0 :
				
				Timer_cfg.Timer_CH_NO = TIMER_CH0 ;
     2c2:	19 82       	std	Y+1, r1	; 0x01
				Timer_cfg.Timer_Mode = TIMER_MODE ;
     2c4:	1a 82       	std	Y+2, r1	; 0x02
				Timer_cfg.Timer_Polling_Or_Interrupt = TIMER_POLLING_MODE ;
     2c6:	1b 82       	std	Y+3, r1	; 0x03
				Timer_cfg.Timer_Prescaler = TIMER_PRESCALER_1024 ;
     2c8:	87 e0       	ldi	r24, 0x07	; 7
     2ca:	8c 83       	std	Y+4, r24	; 0x04
				
				// timer initialization 
				
				a_u8_error_state |=Timer_Init(&Timer_cfg);
     2cc:	ce 01       	movw	r24, r28
     2ce:	01 96       	adiw	r24, 0x01	; 1
     2d0:	0e 94 4f 04 	call	0x89e	; 0x89e <Timer_Init>
				
				break;
     2d4:	03 c0       	rjmp	.+6      	; 0x2dc <Icu_Init+0x3a>
	
		Timer_cfg_s Timer_cfg ;
		
		if (Icu_Cfg == NULL)
		{
			a_u8_error_state |= E_NOK;
     2d6:	81 e0       	ldi	r24, 0x01	; 1
     2d8:	01 c0       	rjmp	.+2      	; 0x2dc <Icu_Init+0x3a>
				
				a_u8_error_state |=Timer_Init(&Timer_cfg);
				
				break;
				case ICU_TIMER_CH1 :
				a_u8_error_state |= E_NOK ;
     2da:	81 e0       	ldi	r24, 0x01	; 1
			
		}
		
		
		return a_u8_error_state  ;
}
     2dc:	26 96       	adiw	r28, 0x06	; 6
     2de:	0f b6       	in	r0, 0x3f	; 63
     2e0:	f8 94       	cli
     2e2:	de bf       	out	0x3e, r29	; 62
     2e4:	0f be       	out	0x3f, r0	; 63
     2e6:	cd bf       	out	0x3d, r28	; 61
     2e8:	df 91       	pop	r29
     2ea:	cf 91       	pop	r28
     2ec:	08 95       	ret

000002ee <Icu_ReadTime>:
 * 				  - E_OK : successful									   *
 *				  - E_NOK : not successful								   *
 * Description	: calculates the time between 2 edges				       *
 ***************************************************************************/

ERROR_STATUS Icu_ReadTime(uint8_t Icu_Channel, uint8_t Icu_EdgeToEdge, uint32_t * Icu_Time){
     2ee:	ef 92       	push	r14
     2f0:	ff 92       	push	r15
     2f2:	0f 93       	push	r16
     2f4:	1f 93       	push	r17
     2f6:	cf 93       	push	r28
     2f8:	df 93       	push	r29
     2fa:	00 d0       	rcall	.+0      	; 0x2fc <Icu_ReadTime+0xe>
     2fc:	00 d0       	rcall	.+0      	; 0x2fe <Icu_ReadTime+0x10>
     2fe:	1f 92       	push	r1
     300:	cd b7       	in	r28, 0x3d	; 61
     302:	de b7       	in	r29, 0x3e	; 62
     304:	f6 2e       	mov	r15, r22
     306:	8a 01       	movw	r16, r20
	
	uint8_t a_u8_error_state = E_OK ;

	uint16_t no_of_ticks = 0 ;
     308:	1a 82       	std	Y+2, r1	; 0x02
     30a:	19 82       	std	Y+1, r1	; 0x01
	uint16_t timerOfTicks_Us  ;
	//set edge and channel global  to update and use in ISR
	
	g_interruptEdge = SwICU_EdgeRisiging;
     30c:	10 92 63 00 	sts	0x0063, r1	; 0x800063 <g_interruptEdge>
	g_timerCH = Icu_Channel ;
     310:	80 93 62 00 	sts	0x0062, r24	; 0x800062 <g_timerCH>
	
	
	switch(Icu_Channel){
     314:	88 23       	and	r24, r24
     316:	29 f0       	breq	.+10     	; 0x322 <Icu_ReadTime+0x34>
     318:	83 30       	cpi	r24, 0x03	; 3
     31a:	b8 f1       	brcs	.+110    	; 0x38a <Icu_ReadTime+0x9c>
			case ICU_TIMER_CH1 :
			break;
			case ICU_TIMER_CH2 :
			break;
			default:
			a_u8_error_state |= E_NOK ;
     31c:	ff 24       	eor	r15, r15
     31e:	f3 94       	inc	r15
     320:	35 c0       	rjmp	.+106    	; 0x38c <Icu_ReadTime+0x9e>

static ERROR_STATUS SetExternal_INT_Edge( uint8_t SwICU_Edge ,uint8_t interruptCH_No ){
	uint8_t a_u8_error_state = E_OK ;
	 
	DIO_Cfg_s dioCfg_INT2;
	switch(interruptCH_No){
     322:	80 91 64 00 	lds	r24, 0x0064	; 0x800064 <g_interruptCH_No>
     326:	82 30       	cpi	r24, 0x02	; 2
     328:	e8 f0       	brcs	.+58     	; 0x364 <Icu_ReadTime+0x76>
     32a:	82 30       	cpi	r24, 0x02	; 2
     32c:	11 f0       	breq	.+4      	; 0x332 <Icu_ReadTime+0x44>
				CLEAR_BIT(INT2_EDGE_GPIO , INT2_EDGE_BIT);
			else
				a_u8_error_state |= E_NOK ;
			break;
		default:
			a_u8_error_state |= E_NOK ;
     32e:	81 e0       	ldi	r24, 0x01	; 1
     330:	1a c0       	rjmp	.+52     	; 0x366 <Icu_ReadTime+0x78>
		case ICU_CH1:
		break;
		case ICU_CH2:
			
			
			dioCfg_INT2.GPIO = GPIOB;
     332:	81 e0       	ldi	r24, 0x01	; 1
     334:	8b 83       	std	Y+3, r24	; 0x03
			dioCfg_INT2.pins = BIT2;
     336:	84 e0       	ldi	r24, 0x04	; 4
     338:	8c 83       	std	Y+4, r24	; 0x04
			dioCfg_INT2.dir =INPUT;
     33a:	1d 82       	std	Y+5, r1	; 0x05
			
			a_u8_error_state |= DIO_init(&dioCfg_INT2);
     33c:	ce 01       	movw	r24, r28
     33e:	03 96       	adiw	r24, 0x03	; 3
     340:	0e 94 c0 00 	call	0x180	; 0x180 <DIO_init>
			
			
			if(SwICU_Edge== ICU_RISE_TO_FALL){
     344:	91 e0       	ldi	r25, 0x01	; 1
     346:	f9 12       	cpse	r15, r25
     348:	04 c0       	rjmp	.+8      	; 0x352 <Icu_ReadTime+0x64>
				
				SET_BIT(INT2_EDGE_GPIO , INT2_EDGE_BIT);
     34a:	94 b7       	in	r25, 0x34	; 52
     34c:	90 64       	ori	r25, 0x40	; 64
     34e:	94 bf       	out	0x34, r25	; 52
     350:	0a c0       	rjmp	.+20     	; 0x366 <Icu_ReadTime+0x78>
				}
			else if(SwICU_Edge== ICU_FALE_TO_RISE)
     352:	e2 e0       	ldi	r30, 0x02	; 2
     354:	fe 12       	cpse	r15, r30
     356:	04 c0       	rjmp	.+8      	; 0x360 <Icu_ReadTime+0x72>
				CLEAR_BIT(INT2_EDGE_GPIO , INT2_EDGE_BIT);
     358:	94 b7       	in	r25, 0x34	; 52
     35a:	9f 7b       	andi	r25, 0xBF	; 191
     35c:	94 bf       	out	0x34, r25	; 52
     35e:	03 c0       	rjmp	.+6      	; 0x366 <Icu_ReadTime+0x78>
			else
				a_u8_error_state |= E_NOK ;
     360:	81 60       	ori	r24, 0x01	; 1
     362:	01 c0       	rjmp	.+2      	; 0x366 <Icu_ReadTime+0x78>
 * 																		  *
 **************************************************************************/


static ERROR_STATUS SetExternal_INT_Edge( uint8_t SwICU_Edge ,uint8_t interruptCH_No ){
	uint8_t a_u8_error_state = E_OK ;
     364:	80 e0       	ldi	r24, 0x00	; 0
	
	switch(Icu_Channel){
			case ICU_TIMER_CH0:
			
			a_u8_error_state |= SetExternal_INT_Edge(Icu_EdgeToEdge,g_interruptCH_No);
			a_u8_error_state |= SetExternal_INT_enable(Icu_EdgeToEdge,g_interruptCH_No) ;
     366:	90 91 64 00 	lds	r25, 0x0064	; 0x800064 <g_interruptCH_No>
static ERROR_STATUS SetExternal_INT_enable( uint8_t SwICU_Edge ,uint8_t interruptCH_No ){

	uint8_t a_u8_error_state = E_OK ;
	
	/*		initialize global interrupt				*/
		sei();
     36a:	78 94       	sei
	
		switch(interruptCH_No){
     36c:	92 30       	cpi	r25, 0x02	; 2
     36e:	48 f0       	brcs	.+18     	; 0x382 <Icu_ReadTime+0x94>
     370:	92 30       	cpi	r25, 0x02	; 2
     372:	11 f0       	breq	.+4      	; 0x378 <Icu_ReadTime+0x8a>
			break;
			case ICU_CH2:
				INT2_EN_GPIO |= 1 << INT2_EN_BIT ;
			break;
			default:
			a_u8_error_state |= E_NOK ;
     374:	91 e0       	ldi	r25, 0x01	; 1
     376:	06 c0       	rjmp	.+12     	; 0x384 <Icu_ReadTime+0x96>
			case ICU_CH0 :
			break;
			case ICU_CH1:
			break;
			case ICU_CH2:
				INT2_EN_GPIO |= 1 << INT2_EN_BIT ;
     378:	9b b7       	in	r25, 0x3b	; 59
     37a:	90 62       	ori	r25, 0x20	; 32
     37c:	9b bf       	out	0x3b, r25	; 59
 **************************************************************************/


static ERROR_STATUS SetExternal_INT_enable( uint8_t SwICU_Edge ,uint8_t interruptCH_No ){

	uint8_t a_u8_error_state = E_OK ;
     37e:	90 e0       	ldi	r25, 0x00	; 0
     380:	01 c0       	rjmp	.+2      	; 0x384 <Icu_ReadTime+0x96>
     382:	90 e0       	ldi	r25, 0x00	; 0
	
	switch(Icu_Channel){
			case ICU_TIMER_CH0:
			
			a_u8_error_state |= SetExternal_INT_Edge(Icu_EdgeToEdge,g_interruptCH_No);
			a_u8_error_state |= SetExternal_INT_enable(Icu_EdgeToEdge,g_interruptCH_No) ;
     384:	f9 2e       	mov	r15, r25
     386:	f8 2a       	or	r15, r24
			
			break;
     388:	01 c0       	rjmp	.+2      	; 0x38c <Icu_ReadTime+0x9e>
 * Description	: calculates the time between 2 edges				       *
 ***************************************************************************/

ERROR_STATUS Icu_ReadTime(uint8_t Icu_Channel, uint8_t Icu_EdgeToEdge, uint32_t * Icu_Time){
	
	uint8_t a_u8_error_state = E_OK ;
     38a:	f1 2c       	mov	r15, r1
			default:
			a_u8_error_state |= E_NOK ;
	}
	
	/* poll on the falling edge occurrence*/  
	while(!g_fallingEdgeFlag) ;
     38c:	90 91 61 00 	lds	r25, 0x0061	; 0x800061 <g_fallingEdgeFlag>
     390:	99 23       	and	r25, r25
     392:	e1 f3       	breq	.-8      	; 0x38c <Icu_ReadTime+0x9e>
	
	
	a_u8_error_state |= Timer_GetValue(g_timerCH ,&no_of_ticks) ;
     394:	80 91 62 00 	lds	r24, 0x0062	; 0x800062 <g_timerCH>
     398:	be 01       	movw	r22, r28
     39a:	6f 5f       	subi	r22, 0xFF	; 255
     39c:	7f 4f       	sbci	r23, 0xFF	; 255
     39e:	0e 94 f8 04 	call	0x9f0	; 0x9f0 <Timer_GetValue>
     3a2:	e8 2e       	mov	r14, r24
	a_u8_error_state |= Timer_GetStatus(TIMER_CH0 ,&g_ovf_flag );
     3a4:	60 e6       	ldi	r22, 0x60	; 96
     3a6:	70 e0       	ldi	r23, 0x00	; 0
     3a8:	80 e0       	ldi	r24, 0x00	; 0
     3aa:	0e 94 c3 04 	call	0x986	; 0x986 <Timer_GetStatus>
     3ae:	8e 29       	or	r24, r14
     3b0:	8f 29       	or	r24, r15
	
	/*check if an ovf take place to add to time*/
	
	if (g_ovf_flag == TRUE)
     3b2:	90 91 60 00 	lds	r25, 0x0060	; 0x800060 <__DATA_REGION_ORIGIN__>
     3b6:	91 30       	cpi	r25, 0x01	; 1
     3b8:	21 f4       	brne	.+8      	; 0x3c2 <Icu_ReadTime+0xd4>
	{
		no_of_ticks=MAX_NO_TICKS;
     3ba:	20 e0       	ldi	r18, 0x00	; 0
     3bc:	31 e0       	ldi	r19, 0x01	; 1
     3be:	3a 83       	std	Y+2, r19	; 0x02
     3c0:	29 83       	std	Y+1, r18	; 0x01
	}
	
	g_ovf_flag = FALSE ;
     3c2:	10 92 60 00 	sts	0x0060, r1	; 0x800060 <__DATA_REGION_ORIGIN__>
	
			/*calculate the timer of pulse in microsecond */
			
	timerOfTicks_Us = no_of_ticks * tickTimeUs ;
	
	*Icu_Time = timerOfTicks_Us ;
     3c6:	49 81       	ldd	r20, Y+1	; 0x01
     3c8:	5a 81       	ldd	r21, Y+2	; 0x02
     3ca:	00 24       	eor	r0, r0
     3cc:	56 95       	lsr	r21
     3ce:	47 95       	ror	r20
     3d0:	07 94       	ror	r0
     3d2:	56 95       	lsr	r21
     3d4:	47 95       	ror	r20
     3d6:	07 94       	ror	r0
     3d8:	54 2f       	mov	r21, r20
     3da:	40 2d       	mov	r20, r0
     3dc:	60 e0       	ldi	r22, 0x00	; 0
     3de:	70 e0       	ldi	r23, 0x00	; 0
     3e0:	f8 01       	movw	r30, r16
     3e2:	40 83       	st	Z, r20
     3e4:	51 83       	std	Z+1, r21	; 0x01
     3e6:	62 83       	std	Z+2, r22	; 0x02
     3e8:	73 83       	std	Z+3, r23	; 0x03
	
	return a_u8_error_state ;
}
     3ea:	0f 90       	pop	r0
     3ec:	0f 90       	pop	r0
     3ee:	0f 90       	pop	r0
     3f0:	0f 90       	pop	r0
     3f2:	0f 90       	pop	r0
     3f4:	df 91       	pop	r29
     3f6:	cf 91       	pop	r28
     3f8:	1f 91       	pop	r17
     3fa:	0f 91       	pop	r16
     3fc:	ff 90       	pop	r15
     3fe:	ef 90       	pop	r14
     400:	08 95       	ret

00000402 <__vector_3>:




ISR(INT2_vect){
     402:	1f 92       	push	r1
     404:	0f 92       	push	r0
     406:	0f b6       	in	r0, 0x3f	; 63
     408:	0f 92       	push	r0
     40a:	11 24       	eor	r1, r1
     40c:	2f 93       	push	r18
     40e:	3f 93       	push	r19
     410:	4f 93       	push	r20
     412:	5f 93       	push	r21
     414:	6f 93       	push	r22
     416:	7f 93       	push	r23
     418:	8f 93       	push	r24
     41a:	9f 93       	push	r25
     41c:	af 93       	push	r26
     41e:	bf 93       	push	r27
     420:	ef 93       	push	r30
     422:	ff 93       	push	r31
	
	switch (g_interruptEdge){
     424:	80 91 63 00 	lds	r24, 0x0063	; 0x800063 <g_interruptEdge>
     428:	88 23       	and	r24, r24
     42a:	19 f0       	breq	.+6      	; 0x432 <__vector_3+0x30>
     42c:	81 30       	cpi	r24, 0x01	; 1
     42e:	81 f0       	breq	.+32     	; 0x450 <__vector_3+0x4e>
     430:	1d c0       	rjmp	.+58     	; 0x46c <__vector_3+0x6a>
          /*rising*/	
		  	
			case SwICU_EdgeRisiging :
			
		
				switch(g_timerCH){
     432:	80 91 62 00 	lds	r24, 0x0062	; 0x800062 <g_timerCH>
     436:	81 11       	cpse	r24, r1
     438:	19 c0       	rjmp	.+50     	; 0x46c <__vector_3+0x6a>
					case ICU_TIMER_CH0 :
				
					Timer_Start(TIMER_CH0,MAX_NO_TICKS);
     43a:	60 e0       	ldi	r22, 0x00	; 0
     43c:	71 e0       	ldi	r23, 0x01	; 1
     43e:	0e 94 2a 05 	call	0xa54	; 0xa54 <Timer_Start>
				
					/*update the control to start at falling edge*/
					INT2_EDGE_GPIO &= ~(1<<INT2_EDGE_BIT) ;
     442:	84 b7       	in	r24, 0x34	; 52
     444:	8f 7b       	andi	r24, 0xBF	; 191
     446:	84 bf       	out	0x34, r24	; 52
				
					g_interruptEdge = SwICU_EdgeFalling;
     448:	81 e0       	ldi	r24, 0x01	; 1
     44a:	80 93 63 00 	sts	0x0063, r24	; 0x800063 <g_interruptEdge>
					break;
     44e:	0e c0       	rjmp	.+28     	; 0x46c <__vector_3+0x6a>
					/*falling*/
			
			case SwICU_EdgeFalling :
			
				
				switch(g_timerCH){
     450:	80 91 62 00 	lds	r24, 0x0062	; 0x800062 <g_timerCH>
     454:	81 11       	cpse	r24, r1
     456:	0a c0       	rjmp	.+20     	; 0x46c <__vector_3+0x6a>
				
					case ICU_TIMER_CH0 :
				
					Timer_Stop(TIMER_CH0);
     458:	0e 94 aa 04 	call	0x954	; 0x954 <Timer_Stop>
				
					//update the control to start at raising edge
				
					INT2_EDGE_GPIO |= 1<<INT2_EDGE_BIT ;
     45c:	84 b7       	in	r24, 0x34	; 52
     45e:	80 64       	ori	r24, 0x40	; 64
     460:	84 bf       	out	0x34, r24	; 52
				
					g_interruptEdge = SwICU_EdgeRisiging;
     462:	10 92 63 00 	sts	0x0063, r1	; 0x800063 <g_interruptEdge>
					g_fallingEdgeFlag = TRUE ;
     466:	81 e0       	ldi	r24, 0x01	; 1
     468:	80 93 61 00 	sts	0x0061, r24	; 0x800061 <g_fallingEdgeFlag>
					default:
						break ;
					}
	break;
}
     46c:	ff 91       	pop	r31
     46e:	ef 91       	pop	r30
     470:	bf 91       	pop	r27
     472:	af 91       	pop	r26
     474:	9f 91       	pop	r25
     476:	8f 91       	pop	r24
     478:	7f 91       	pop	r23
     47a:	6f 91       	pop	r22
     47c:	5f 91       	pop	r21
     47e:	4f 91       	pop	r20
     480:	3f 91       	pop	r19
     482:	2f 91       	pop	r18
     484:	0f 90       	pop	r0
     486:	0f be       	out	0x3f, r0	; 63
     488:	0f 90       	pop	r0
     48a:	1f 90       	pop	r1
     48c:	18 95       	reti

0000048e <main>:
#include "TimerDelay.h"
#include "Steering.h"
#include "car_sm.h"

int main(void)
{
     48e:	cf 93       	push	r28
     490:	df 93       	push	r29
     492:	00 d0       	rcall	.+0      	; 0x494 <main+0x6>
     494:	1f 92       	push	r1
     496:	cd b7       	in	r28, 0x3d	; 61
     498:	de b7       	in	r29, 0x3e	; 62
Pwm_Start(PWM_CH1A,50,100) ;
Pwm_Start(PWM_CH1B,50,100) ;*/



timerDelayMs(1000);
     49a:	88 ee       	ldi	r24, 0xE8	; 232
     49c:	93 e0       	ldi	r25, 0x03	; 3
     49e:	0e 94 16 06 	call	0xc2c	; 0xc2c <timerDelayMs>


//Icu_cfg_s icuCfg;
	DIO_Cfg_s dioCfgrem;
	
	dioCfgrem.GPIO = GPIOB;
     4a2:	81 e0       	ldi	r24, 0x01	; 1
     4a4:	89 83       	std	Y+1, r24	; 0x01
	dioCfgrem.pins = BIT7|BIT6|BIT5|BIT4;
     4a6:	80 ef       	ldi	r24, 0xF0	; 240
     4a8:	8a 83       	std	Y+2, r24	; 0x02
	dioCfgrem.dir =OUTPUT;
     4aa:	8f ef       	ldi	r24, 0xFF	; 255
     4ac:	8b 83       	std	Y+3, r24	; 0x03
	
	DIO_init(&dioCfgrem);
     4ae:	ce 01       	movw	r24, r28
     4b0:	01 96       	adiw	r24, 0x01	; 1
     4b2:	0e 94 c0 00 	call	0x180	; 0x180 <DIO_init>
	//uint16_t distance;
	/*
	Icu_ReadTime(ICU_TIMER_CH0,ICU_RISE_TO_FALL,&time_);*/
	//Us_Init();
	
	Car_SM_Init();
     4b6:	0e 94 3e 00 	call	0x7c	; 0x7c <Car_SM_Init>
	
    while(1)
    {
		Car_SM_Update();
     4ba:	0e 94 4a 00 	call	0x94	; 0x94 <Car_SM_Update>
     4be:	fd cf       	rjmp	.-6      	; 0x4ba <main+0x2c>

000004c0 <Motor_Init>:
 * Return		: ERROR_STATUS
 * Description	: Initialize (Enable, IN1, IN2) pins as digital outputs.
 */


 ERROR_STATUS Motor_Init(uint8_t Motor_Number){
     4c0:	1f 93       	push	r17
     4c2:	cf 93       	push	r28
     4c4:	df 93       	push	r29
     4c6:	cd b7       	in	r28, 0x3d	; 61
     4c8:	de b7       	in	r29, 0x3e	; 62
     4ca:	27 97       	sbiw	r28, 0x07	; 7
     4cc:	0f b6       	in	r0, 0x3f	; 63
     4ce:	f8 94       	cli
     4d0:	de bf       	out	0x3e, r29	; 62
     4d2:	0f be       	out	0x3f, r0	; 63
     4d4:	cd bf       	out	0x3d, r28	; 61
	 
	 DIO_Cfg_s dioCfg_M;
	  Pwm_Cfg_s pwm_cfgA ;
	 Pwm_Cfg_s pwm_cfgB ;
	 
	 	switch (Motor_Number)
     4d6:	81 30       	cpi	r24, 0x01	; 1
     4d8:	19 f0       	breq	.+6      	; 0x4e0 <Motor_Init+0x20>
     4da:	82 30       	cpi	r24, 0x02	; 2
     4dc:	e1 f0       	breq	.+56     	; 0x516 <Motor_Init+0x56>
     4de:	36 c0       	rjmp	.+108    	; 0x54c <Motor_Init+0x8c>
	 	{
		 	case MOTOR_1:
			
			 pwm_cfgA.Channel = PWM_CH1A ;
     4e0:	81 e0       	ldi	r24, 0x01	; 1
     4e2:	8c 83       	std	Y+4, r24	; 0x04
			 pwm_cfgA.Prescaler = PWM_PRESCALER_1024 ;
     4e4:	86 e0       	ldi	r24, 0x06	; 6
     4e6:	8d 83       	std	Y+5, r24	; 0x05
			 a_u8_error_state |= Pwm_Init(&pwm_cfgA);
     4e8:	ce 01       	movw	r24, r28
     4ea:	04 96       	adiw	r24, 0x04	; 4
     4ec:	0e 94 39 03 	call	0x672	; 0x672 <Pwm_Init>
     4f0:	18 2f       	mov	r17, r24
			 dioCfg_M.GPIO=MOTOR_OUT_1A_GPIO;
     4f2:	83 e0       	ldi	r24, 0x03	; 3
     4f4:	89 83       	std	Y+1, r24	; 0x01
			 dioCfg_M.pins=MOTOR_OUT_1A_BIT|MOTOR_OUT_1B_BIT|MOTOR_EN_1_BIT;
     4f6:	8c e1       	ldi	r24, 0x1C	; 28
     4f8:	8a 83       	std	Y+2, r24	; 0x02
			 dioCfg_M.dir=OUTPUT;
     4fa:	8f ef       	ldi	r24, 0xFF	; 255
     4fc:	8b 83       	std	Y+3, r24	; 0x03
			 
			 
		 	 a_u8_error_state |=  DIO_init (&dioCfg_M);
     4fe:	ce 01       	movw	r24, r28
     500:	01 96       	adiw	r24, 0x01	; 1
     502:	0e 94 c0 00 	call	0x180	; 0x180 <DIO_init>
     506:	18 2b       	or	r17, r24

		 	 a_u8_error_state |= DIO_Write (dioCfg_M.GPIO, dioCfg_M.pins , LOW);
     508:	40 e0       	ldi	r20, 0x00	; 0
     50a:	6a 81       	ldd	r22, Y+2	; 0x02
     50c:	89 81       	ldd	r24, Y+1	; 0x01
     50e:	0e 94 09 01 	call	0x212	; 0x212 <DIO_Write>
     512:	81 2b       	or	r24, r17

		 	
		 	break;
     514:	1c c0       	rjmp	.+56     	; 0x54e <Motor_Init+0x8e>
		 	
		 	case MOTOR_2:
			 
			 pwm_cfgB.Channel = PWM_CH1B ;
     516:	82 e0       	ldi	r24, 0x02	; 2
     518:	8e 83       	std	Y+6, r24	; 0x06
			 pwm_cfgB.Prescaler = PWM_PRESCALER_1024 ;
     51a:	86 e0       	ldi	r24, 0x06	; 6
     51c:	8f 83       	std	Y+7, r24	; 0x07
			 a_u8_error_state |= Pwm_Init(&pwm_cfgB);
     51e:	ce 01       	movw	r24, r28
     520:	06 96       	adiw	r24, 0x06	; 6
     522:	0e 94 39 03 	call	0x672	; 0x672 <Pwm_Init>
     526:	18 2f       	mov	r17, r24
			 dioCfg_M.GPIO=MOTOR_OUT_2A_GPIO;
     528:	83 e0       	ldi	r24, 0x03	; 3
     52a:	89 83       	std	Y+1, r24	; 0x01
			 dioCfg_M.pins=MOTOR_OUT_2A_BIT|MOTOR_OUT_2B_BIT|MOTOR_EN_2_BIT;
     52c:	80 ee       	ldi	r24, 0xE0	; 224
     52e:	8a 83       	std	Y+2, r24	; 0x02
			 dioCfg_M.dir=OUTPUT;
     530:	8f ef       	ldi	r24, 0xFF	; 255
     532:	8b 83       	std	Y+3, r24	; 0x03
			 
			 
			 a_u8_error_state |= DIO_init (&dioCfg_M);
     534:	ce 01       	movw	r24, r28
     536:	01 96       	adiw	r24, 0x01	; 1
     538:	0e 94 c0 00 	call	0x180	; 0x180 <DIO_init>
     53c:	18 2b       	or	r17, r24

			 a_u8_error_state |= DIO_Write (dioCfg_M.GPIO, dioCfg_M.pins , LOW);
     53e:	40 e0       	ldi	r20, 0x00	; 0
     540:	6a 81       	ldd	r22, Y+2	; 0x02
     542:	89 81       	ldd	r24, Y+1	; 0x01
     544:	0e 94 09 01 	call	0x212	; 0x212 <DIO_Write>
     548:	81 2b       	or	r24, r17

			 break;
     54a:	01 c0       	rjmp	.+2      	; 0x54e <Motor_Init+0x8e>

			 default:
			 a_u8_error_state |=  E_NOK ;
     54c:	81 e0       	ldi	r24, 0x01	; 1
			 break;
	 	}
	 return a_u8_error_state  ;
 }
     54e:	27 96       	adiw	r28, 0x07	; 7
     550:	0f b6       	in	r0, 0x3f	; 63
     552:	f8 94       	cli
     554:	de bf       	out	0x3e, r29	; 62
     556:	0f be       	out	0x3f, r0	; 63
     558:	cd bf       	out	0x3d, r28	; 61
     55a:	df 91       	pop	r29
     55c:	cf 91       	pop	r28
     55e:	1f 91       	pop	r17
     560:	08 95       	ret

00000562 <Motor_Direction>:
 * return 	 : ERROR_STATUS
 * Description: Controls the motor direction from getting the motor number and the direction.
*/


ERROR_STATUS Motor_Direction(uint8_t Motor_Number, uint8_t Motor_Direction){
     562:	cf 93       	push	r28
	
		 uint8_t a_u8_error_state = E_OK ;
	
		switch (Motor_Number)
     564:	81 30       	cpi	r24, 0x01	; 1
     566:	19 f0       	breq	.+6      	; 0x56e <Motor_Direction+0xc>
     568:	82 30       	cpi	r24, 0x02	; 2
     56a:	71 f1       	breq	.+92     	; 0x5c8 <Motor_Direction+0x66>
     56c:	5a c0       	rjmp	.+180    	; 0x622 <Motor_Direction+0xc0>
		{
			//////////motor1///////////
			case MOTOR_1:
			switch (Motor_Direction)
     56e:	61 30       	cpi	r22, 0x01	; 1
     570:	21 f0       	breq	.+8      	; 0x57a <Motor_Direction+0x18>
     572:	e8 f0       	brcs	.+58     	; 0x5ae <Motor_Direction+0x4c>
     574:	62 30       	cpi	r22, 0x02	; 2
     576:	71 f0       	breq	.+28     	; 0x594 <Motor_Direction+0x32>
     578:	56 c0       	rjmp	.+172    	; 0x626 <Motor_Direction+0xc4>
			{
				case MOTOR_FORWARD:
				a_u8_error_state |= DIO_Write (MOTOR_OUT_1A_GPIO, MOTOR_OUT_1A_BIT , LOW);
     57a:	40 e0       	ldi	r20, 0x00	; 0
     57c:	68 e0       	ldi	r22, 0x08	; 8
     57e:	83 e0       	ldi	r24, 0x03	; 3
     580:	0e 94 09 01 	call	0x212	; 0x212 <DIO_Write>
     584:	c8 2f       	mov	r28, r24
				a_u8_error_state |= DIO_Write (MOTOR_OUT_1B_GPIO, MOTOR_OUT_1B_BIT , HIGH);
     586:	4f ef       	ldi	r20, 0xFF	; 255
     588:	64 e0       	ldi	r22, 0x04	; 4
     58a:	83 e0       	ldi	r24, 0x03	; 3
     58c:	0e 94 09 01 	call	0x212	; 0x212 <DIO_Write>
     590:	8c 2b       	or	r24, r28
				break;
     592:	4c c0       	rjmp	.+152    	; 0x62c <Motor_Direction+0xca>
				
				case MOTOR_BACKWARD:
				
				a_u8_error_state |= DIO_Write (MOTOR_OUT_1A_GPIO, MOTOR_OUT_1A_BIT , HIGH);
     594:	4f ef       	ldi	r20, 0xFF	; 255
     596:	68 e0       	ldi	r22, 0x08	; 8
     598:	83 e0       	ldi	r24, 0x03	; 3
     59a:	0e 94 09 01 	call	0x212	; 0x212 <DIO_Write>
     59e:	c8 2f       	mov	r28, r24
				a_u8_error_state |= DIO_Write (MOTOR_OUT_1B_GPIO, MOTOR_OUT_1B_BIT , LOW);
     5a0:	40 e0       	ldi	r20, 0x00	; 0
     5a2:	64 e0       	ldi	r22, 0x04	; 4
     5a4:	83 e0       	ldi	r24, 0x03	; 3
     5a6:	0e 94 09 01 	call	0x212	; 0x212 <DIO_Write>
     5aa:	8c 2b       	or	r24, r28
				break;
     5ac:	3f c0       	rjmp	.+126    	; 0x62c <Motor_Direction+0xca>
				
				case MOTOR_STOP:
				
				a_u8_error_state |= DIO_Write (MOTOR_OUT_1A_GPIO, MOTOR_OUT_1A_BIT , LOW);
     5ae:	40 e0       	ldi	r20, 0x00	; 0
     5b0:	68 e0       	ldi	r22, 0x08	; 8
     5b2:	83 e0       	ldi	r24, 0x03	; 3
     5b4:	0e 94 09 01 	call	0x212	; 0x212 <DIO_Write>
     5b8:	c8 2f       	mov	r28, r24
				a_u8_error_state |= DIO_Write (MOTOR_OUT_1B_GPIO, MOTOR_OUT_1B_BIT , LOW);
     5ba:	40 e0       	ldi	r20, 0x00	; 0
     5bc:	64 e0       	ldi	r22, 0x04	; 4
     5be:	83 e0       	ldi	r24, 0x03	; 3
     5c0:	0e 94 09 01 	call	0x212	; 0x212 <DIO_Write>
     5c4:	8c 2b       	or	r24, r28
				break;
     5c6:	32 c0       	rjmp	.+100    	; 0x62c <Motor_Direction+0xca>
			}
			break;
			
			////////motor2//////////
			case MOTOR_2:
			switch (Motor_Direction)
     5c8:	61 30       	cpi	r22, 0x01	; 1
     5ca:	21 f0       	breq	.+8      	; 0x5d4 <Motor_Direction+0x72>
     5cc:	e8 f0       	brcs	.+58     	; 0x608 <Motor_Direction+0xa6>
     5ce:	62 30       	cpi	r22, 0x02	; 2
     5d0:	71 f0       	breq	.+28     	; 0x5ee <Motor_Direction+0x8c>
     5d2:	2b c0       	rjmp	.+86     	; 0x62a <Motor_Direction+0xc8>
			{
				case MOTOR_FORWARD:
				a_u8_error_state |= DIO_Write (MOTOR_OUT_2A_GPIO, MOTOR_OUT_2A_BIT , HIGH);
     5d4:	4f ef       	ldi	r20, 0xFF	; 255
     5d6:	60 e4       	ldi	r22, 0x40	; 64
     5d8:	83 e0       	ldi	r24, 0x03	; 3
     5da:	0e 94 09 01 	call	0x212	; 0x212 <DIO_Write>
     5de:	c8 2f       	mov	r28, r24
				a_u8_error_state |= DIO_Write (MOTOR_OUT_2B_GPIO, MOTOR_OUT_2B_BIT , LOW);
     5e0:	40 e0       	ldi	r20, 0x00	; 0
     5e2:	60 e8       	ldi	r22, 0x80	; 128
     5e4:	83 e0       	ldi	r24, 0x03	; 3
     5e6:	0e 94 09 01 	call	0x212	; 0x212 <DIO_Write>
     5ea:	8c 2b       	or	r24, r28
				break;
     5ec:	1f c0       	rjmp	.+62     	; 0x62c <Motor_Direction+0xca>
				case MOTOR_BACKWARD:
				a_u8_error_state |= DIO_Write (MOTOR_OUT_2A_GPIO, MOTOR_OUT_2A_BIT , LOW);
     5ee:	40 e0       	ldi	r20, 0x00	; 0
     5f0:	60 e4       	ldi	r22, 0x40	; 64
     5f2:	83 e0       	ldi	r24, 0x03	; 3
     5f4:	0e 94 09 01 	call	0x212	; 0x212 <DIO_Write>
     5f8:	c8 2f       	mov	r28, r24
				a_u8_error_state |= DIO_Write (MOTOR_OUT_2B_GPIO, MOTOR_OUT_2B_BIT , HIGH);
     5fa:	4f ef       	ldi	r20, 0xFF	; 255
     5fc:	60 e8       	ldi	r22, 0x80	; 128
     5fe:	83 e0       	ldi	r24, 0x03	; 3
     600:	0e 94 09 01 	call	0x212	; 0x212 <DIO_Write>
     604:	8c 2b       	or	r24, r28
				break;
     606:	12 c0       	rjmp	.+36     	; 0x62c <Motor_Direction+0xca>
				case MOTOR_STOP:
				a_u8_error_state |= DIO_Write (MOTOR_OUT_2A_GPIO, MOTOR_OUT_2A_BIT , LOW);
     608:	40 e0       	ldi	r20, 0x00	; 0
     60a:	60 e4       	ldi	r22, 0x40	; 64
     60c:	83 e0       	ldi	r24, 0x03	; 3
     60e:	0e 94 09 01 	call	0x212	; 0x212 <DIO_Write>
     612:	c8 2f       	mov	r28, r24
				a_u8_error_state |= DIO_Write (MOTOR_OUT_2B_GPIO, MOTOR_OUT_2B_BIT , LOW);
     614:	40 e0       	ldi	r20, 0x00	; 0
     616:	60 e8       	ldi	r22, 0x80	; 128
     618:	83 e0       	ldi	r24, 0x03	; 3
     61a:	0e 94 09 01 	call	0x212	; 0x212 <DIO_Write>
     61e:	8c 2b       	or	r24, r28
				break;
     620:	05 c0       	rjmp	.+10     	; 0x62c <Motor_Direction+0xca>
				break;
			}
			break;
			
			default:
			a_u8_error_state |=  E_NOK ;
     622:	81 e0       	ldi	r24, 0x01	; 1
     624:	03 c0       	rjmp	.+6      	; 0x62c <Motor_Direction+0xca>
				a_u8_error_state |= DIO_Write (MOTOR_OUT_1A_GPIO, MOTOR_OUT_1A_BIT , LOW);
				a_u8_error_state |= DIO_Write (MOTOR_OUT_1B_GPIO, MOTOR_OUT_1B_BIT , LOW);
				break;
				
				default:
				a_u8_error_state |= E_NOK ;
     626:	81 e0       	ldi	r24, 0x01	; 1
     628:	01 c0       	rjmp	.+2      	; 0x62c <Motor_Direction+0xca>
				case MOTOR_STOP:
				a_u8_error_state |= DIO_Write (MOTOR_OUT_2A_GPIO, MOTOR_OUT_2A_BIT , LOW);
				a_u8_error_state |= DIO_Write (MOTOR_OUT_2B_GPIO, MOTOR_OUT_2B_BIT , LOW);
				break;
				default:
				a_u8_error_state |=  E_NOK ;
     62a:	81 e0       	ldi	r24, 0x01	; 1
			a_u8_error_state |=  E_NOK ;
			break;
		}
		
		return a_u8_error_state  ;
}
     62c:	cf 91       	pop	r28
     62e:	08 95       	ret

00000630 <Motor_Start>:
 * output  	 : no output
 * return 	 : ERROR_STATUS
 * Description: Start the motor.
*/

ERROR_STATUS Motor_Start(uint8_t Motor_Number, uint8_t Mot_Speed){
     630:	cf 93       	push	r28
     632:	df 93       	push	r29
     634:	d6 2f       	mov	r29, r22
	
	 uint8_t a_u8_error_state = E_OK ;
	
	switch(Motor_Number){
     636:	81 30       	cpi	r24, 0x01	; 1
     638:	19 f0       	breq	.+6      	; 0x640 <Motor_Start+0x10>
     63a:	82 30       	cpi	r24, 0x02	; 2
     63c:	51 f0       	breq	.+20     	; 0x652 <Motor_Start+0x22>
     63e:	14 c0       	rjmp	.+40     	; 0x668 <Motor_Start+0x38>
		
		case MOTOR_1 :
		a_u8_error_state |= Pwm_Start(PWM_CH1A,Mot_Speed,CAR_FREQUANCY);
     640:	24 e6       	ldi	r18, 0x64	; 100
     642:	30 e0       	ldi	r19, 0x00	; 0
     644:	40 e0       	ldi	r20, 0x00	; 0
     646:	50 e0       	ldi	r21, 0x00	; 0
     648:	81 e0       	ldi	r24, 0x01	; 1
     64a:	0e 94 8b 03 	call	0x716	; 0x716 <Pwm_Start>
     64e:	c8 2f       	mov	r28, r24
     650:	01 c0       	rjmp	.+2      	; 0x654 <Motor_Start+0x24>
 * Description: Start the motor.
*/

ERROR_STATUS Motor_Start(uint8_t Motor_Number, uint8_t Mot_Speed){
	
	 uint8_t a_u8_error_state = E_OK ;
     652:	c0 e0       	ldi	r28, 0x00	; 0
	switch(Motor_Number){
		
		case MOTOR_1 :
		a_u8_error_state |= Pwm_Start(PWM_CH1A,Mot_Speed,CAR_FREQUANCY);
		case MOTOR_2 :
		a_u8_error_state |= Pwm_Start(PWM_CH1B,Mot_Speed,CAR_FREQUANCY);
     654:	24 e6       	ldi	r18, 0x64	; 100
     656:	30 e0       	ldi	r19, 0x00	; 0
     658:	40 e0       	ldi	r20, 0x00	; 0
     65a:	50 e0       	ldi	r21, 0x00	; 0
     65c:	6d 2f       	mov	r22, r29
     65e:	82 e0       	ldi	r24, 0x02	; 2
     660:	0e 94 8b 03 	call	0x716	; 0x716 <Pwm_Start>
     664:	8c 2b       	or	r24, r28
     666:	01 c0       	rjmp	.+2      	; 0x66a <Motor_Start+0x3a>
 * Description: Start the motor.
*/

ERROR_STATUS Motor_Start(uint8_t Motor_Number, uint8_t Mot_Speed){
	
	 uint8_t a_u8_error_state = E_OK ;
     668:	80 e0       	ldi	r24, 0x00	; 0
		a_u8_error_state |= Pwm_Start(PWM_CH1B,Mot_Speed,CAR_FREQUANCY);
		default :
		a_u8_error_state |= E_NOK ;
	}
	return a_u8_error_state  ;
}
     66a:	81 60       	ori	r24, 0x01	; 1
     66c:	df 91       	pop	r29
     66e:	cf 91       	pop	r28
     670:	08 95       	ret

00000672 <Pwm_Init>:
/* Return type : void                                                            */
/*                                                                               */
/* Description: initialize the PWM configuration                                 */
/*********************************************************************************/

extern ERROR_STATUS Pwm_Init(Pwm_Cfg_s *Pwm_Cfg){
     672:	0f 93       	push	r16
     674:	1f 93       	push	r17
     676:	cf 93       	push	r28
     678:	df 93       	push	r29
     67a:	00 d0       	rcall	.+0      	; 0x67c <Pwm_Init+0xa>
     67c:	1f 92       	push	r1
     67e:	cd b7       	in	r28, 0x3d	; 61
     680:	de b7       	in	r29, 0x3e	; 62
     682:	8c 01       	movw	r16, r24
	
	
	/// set two oc pins output 
	
		DIO_Cfg_s dioCfg;
		dioCfg.GPIO=PWM_GPIO1;
     684:	83 e0       	ldi	r24, 0x03	; 3
     686:	89 83       	std	Y+1, r24	; 0x01
		dioCfg.pins=PWM_BIT1|PWM_BIT2;
     688:	80 e3       	ldi	r24, 0x30	; 48
     68a:	8a 83       	std	Y+2, r24	; 0x02
		dioCfg.dir=OUTPUT;
     68c:	8f ef       	ldi	r24, 0xFF	; 255
     68e:	8b 83       	std	Y+3, r24	; 0x03
		a_u8_error_state |= DIO_init(&dioCfg);
     690:	ce 01       	movw	r24, r28
     692:	01 96       	adiw	r24, 0x01	; 1
     694:	0e 94 c0 00 	call	0x180	; 0x180 <DIO_init>
     698:	91 e0       	ldi	r25, 0x01	; 1
     69a:	01 15       	cp	r16, r1
     69c:	11 05       	cpc	r17, r1
     69e:	09 f0       	breq	.+2      	; 0x6a2 <Pwm_Init+0x30>
     6a0:	90 e0       	ldi	r25, 0x00	; 0
     6a2:	89 2b       	or	r24, r25
		
		
	
	
	switch(Pwm_Cfg->Prescaler){
     6a4:	f8 01       	movw	r30, r16
     6a6:	91 81       	ldd	r25, Z+1	; 0x01
     6a8:	96 30       	cpi	r25, 0x06	; 6
     6aa:	50 f0       	brcs	.+20     	; 0x6c0 <Pwm_Init+0x4e>
     6ac:	96 30       	cpi	r25, 0x06	; 6
     6ae:	39 f4       	brne	.+14     	; 0x6be <Pwm_Init+0x4c>
		
		break;
		case PWM_PRESCALER_1024 :
		//set prescale mask global to use in start
		
		g_Prescale_mask = TIMER1_PRESCALER_1024_MASK ;
     6b0:	25 e0       	ldi	r18, 0x05	; 5
     6b2:	30 e0       	ldi	r19, 0x00	; 0
     6b4:	30 93 66 00 	sts	0x0066, r19	; 0x800066 <g_Prescale_mask+0x1>
     6b8:	20 93 65 00 	sts	0x0065, r18	; 0x800065 <g_Prescale_mask>
		break;
     6bc:	01 c0       	rjmp	.+2      	; 0x6c0 <Pwm_Init+0x4e>
		default: 
		a_u8_error_state |= E_NOK ;
     6be:	81 60       	ori	r24, 0x01	; 1
	}
	
	switch(Pwm_Cfg->Channel){
     6c0:	f8 01       	movw	r30, r16
     6c2:	90 81       	ld	r25, Z
     6c4:	91 30       	cpi	r25, 0x01	; 1
     6c6:	31 f0       	breq	.+12     	; 0x6d4 <Pwm_Init+0x62>
     6c8:	f0 f0       	brcs	.+60     	; 0x706 <Pwm_Init+0x94>
     6ca:	92 30       	cpi	r25, 0x02	; 2
     6cc:	79 f0       	breq	.+30     	; 0x6ec <Pwm_Init+0x7a>
     6ce:	93 30       	cpi	r25, 0x03	; 3
     6d0:	c9 f4       	brne	.+50     	; 0x704 <Pwm_Init+0x92>
     6d2:	19 c0       	rjmp	.+50     	; 0x706 <Pwm_Init+0x94>
		case PWM_CH0:
		
		break;
		case PWM_CH1A :
		
		TCCR1 |= T1_PHASE_CORRECT_ICR1 ;
     6d4:	2e b5       	in	r18, 0x2e	; 46
     6d6:	3f b5       	in	r19, 0x2f	; 47
     6d8:	20 61       	ori	r18, 0x10	; 16
     6da:	32 60       	ori	r19, 0x02	; 2
     6dc:	3f bd       	out	0x2f, r19	; 47
     6de:	2e bd       	out	0x2e, r18	; 46
		TCCR1 |= T1_OC1A_CLEAR ;
     6e0:	2e b5       	in	r18, 0x2e	; 46
     6e2:	3f b5       	in	r19, 0x2f	; 47
     6e4:	30 68       	ori	r19, 0x80	; 128
     6e6:	3f bd       	out	0x2f, r19	; 47
     6e8:	2e bd       	out	0x2e, r18	; 46
		
		
		break;
     6ea:	0d c0       	rjmp	.+26     	; 0x706 <Pwm_Init+0x94>
		case PWM_CH1B :
		
		TCCR1 |= T1_PHASE_CORRECT_ICR1 ;
     6ec:	2e b5       	in	r18, 0x2e	; 46
     6ee:	3f b5       	in	r19, 0x2f	; 47
     6f0:	20 61       	ori	r18, 0x10	; 16
     6f2:	32 60       	ori	r19, 0x02	; 2
     6f4:	3f bd       	out	0x2f, r19	; 47
     6f6:	2e bd       	out	0x2e, r18	; 46
		TCCR1 |= T1_OC1B_CLEAR ;
     6f8:	2e b5       	in	r18, 0x2e	; 46
     6fa:	3f b5       	in	r19, 0x2f	; 47
     6fc:	30 62       	ori	r19, 0x20	; 32
     6fe:	3f bd       	out	0x2f, r19	; 47
     700:	2e bd       	out	0x2e, r18	; 46
		
		break;
     702:	01 c0       	rjmp	.+2      	; 0x706 <Pwm_Init+0x94>
		case PWM_CH2 :
		
		break;
		default:
		a_u8_error_state |= E_NOK ;
     704:	81 60       	ori	r24, 0x01	; 1
	}
	
	return a_u8_error_state  ;
	
	
}
     706:	0f 90       	pop	r0
     708:	0f 90       	pop	r0
     70a:	0f 90       	pop	r0
     70c:	df 91       	pop	r29
     70e:	cf 91       	pop	r28
     710:	1f 91       	pop	r17
     712:	0f 91       	pop	r16
     714:	08 95       	ret

00000716 <Pwm_Start>:
/*all this calculation for F_CPU 16MHz                                           */
/*********************************************************************************/



extern ERROR_STATUS Pwm_Start(uint8_t Channel,uint8_t Duty,uint32_t Frequncy){
     716:	cf 92       	push	r12
     718:	df 92       	push	r13
     71a:	ef 92       	push	r14
     71c:	ff 92       	push	r15
     71e:	cf 93       	push	r28
     720:	df 93       	push	r29
     722:	d8 2f       	mov	r29, r24
     724:	c6 2f       	mov	r28, r22
	uint16_t ICR_TOP ;
	uint16_t duty_cycle_tick ;
	
	//function to calculate the icr top from the freq and pre scale (fromdata sheet)
	
	ICR_TOP = F_CPU / (2.0 * PWM_PRE_SCALE * Frequncy) ;
     726:	ca 01       	movw	r24, r20
     728:	b9 01       	movw	r22, r18
     72a:	0e 94 65 07 	call	0xeca	; 0xeca <__floatunsisf>
     72e:	20 e0       	ldi	r18, 0x00	; 0
     730:	30 e0       	ldi	r19, 0x00	; 0
     732:	40 e0       	ldi	r20, 0x00	; 0
     734:	55 e4       	ldi	r21, 0x45	; 69
     736:	0e 94 f3 07 	call	0xfe6	; 0xfe6 <__mulsf3>
     73a:	9b 01       	movw	r18, r22
     73c:	ac 01       	movw	r20, r24
     73e:	60 e0       	ldi	r22, 0x00	; 0
     740:	74 e2       	ldi	r23, 0x24	; 36
     742:	84 e7       	ldi	r24, 0x74	; 116
     744:	9b e4       	ldi	r25, 0x4B	; 75
     746:	0e 94 c4 06 	call	0xd88	; 0xd88 <__divsf3>
     74a:	0e 94 36 07 	call	0xe6c	; 0xe6c <__fixunssfsi>
     74e:	6b 01       	movw	r12, r22
     750:	7c 01       	movw	r14, r24
	
	//to calculate ticks needed to add in the OCR to reach the required duty 
	//ticks for high 
	
	duty_cycle_tick = ICR_TOP *Duty/100.0 ;
     752:	8c 2f       	mov	r24, r28
     754:	90 e0       	ldi	r25, 0x00	; 0
     756:	8c 9d       	mul	r24, r12
     758:	b0 01       	movw	r22, r0
     75a:	8d 9d       	mul	r24, r13
     75c:	70 0d       	add	r23, r0
     75e:	9c 9d       	mul	r25, r12
     760:	70 0d       	add	r23, r0
     762:	11 24       	eor	r1, r1
     764:	80 e0       	ldi	r24, 0x00	; 0
     766:	90 e0       	ldi	r25, 0x00	; 0
     768:	0e 94 65 07 	call	0xeca	; 0xeca <__floatunsisf>
     76c:	20 e0       	ldi	r18, 0x00	; 0
     76e:	30 e0       	ldi	r19, 0x00	; 0
     770:	48 ec       	ldi	r20, 0xC8	; 200
     772:	52 e4       	ldi	r21, 0x42	; 66
     774:	0e 94 c4 06 	call	0xd88	; 0xd88 <__divsf3>
     778:	0e 94 36 07 	call	0xe6c	; 0xe6c <__fixunssfsi>
	
		
		switch(Channel){
     77c:	d1 30       	cpi	r29, 0x01	; 1
     77e:	39 f0       	breq	.+14     	; 0x78e <Pwm_Start+0x78>
     780:	30 f1       	brcs	.+76     	; 0x7ce <Pwm_Start+0xb8>
     782:	d2 30       	cpi	r29, 0x02	; 2
     784:	a1 f0       	breq	.+40     	; 0x7ae <Pwm_Start+0x98>
     786:	d3 30       	cpi	r29, 0x03	; 3
     788:	11 f1       	breq	.+68     	; 0x7ce <Pwm_Start+0xb8>
			break;
			case PWM_CH2 :
			
			break;
			default:
			a_u8_error_state |= E_NOK ;
     78a:	81 e0       	ldi	r24, 0x01	; 1
     78c:	21 c0       	rjmp	.+66     	; 0x7d0 <Pwm_Start+0xba>
			case PWM_CH0:
			
			break;
			case PWM_CH1A :
			
			ICR1 = ICR_TOP ;
     78e:	d7 bc       	out	0x27, r13	; 39
     790:	c6 bc       	out	0x26, r12	; 38
			OCR1A = duty_cycle_tick ;
     792:	7b bd       	out	0x2b, r23	; 43
     794:	6a bd       	out	0x2a, r22	; 42
			
			TCCR1|=g_Prescale_mask ;
     796:	2e b5       	in	r18, 0x2e	; 46
     798:	3f b5       	in	r19, 0x2f	; 47
     79a:	80 91 65 00 	lds	r24, 0x0065	; 0x800065 <g_Prescale_mask>
     79e:	90 91 66 00 	lds	r25, 0x0066	; 0x800066 <g_Prescale_mask+0x1>
     7a2:	82 2b       	or	r24, r18
     7a4:	93 2b       	or	r25, r19
     7a6:	9f bd       	out	0x2f, r25	; 47
     7a8:	8e bd       	out	0x2e, r24	; 46



extern ERROR_STATUS Pwm_Start(uint8_t Channel,uint8_t Duty,uint32_t Frequncy){
	
	uint8_t a_u8_error_state = E_OK ;
     7aa:	80 e0       	ldi	r24, 0x00	; 0
			OCR1A = duty_cycle_tick ;
			
			TCCR1|=g_Prescale_mask ;
			
			
			break;
     7ac:	11 c0       	rjmp	.+34     	; 0x7d0 <Pwm_Start+0xba>
			case PWM_CH1B :
			
			ICR1 = ICR_TOP ;
     7ae:	d7 bc       	out	0x27, r13	; 39
     7b0:	c6 bc       	out	0x26, r12	; 38
			OCR1B = duty_cycle_tick ;
     7b2:	79 bd       	out	0x29, r23	; 41
     7b4:	68 bd       	out	0x28, r22	; 40
			TCCR1|=g_Prescale_mask ;
     7b6:	2e b5       	in	r18, 0x2e	; 46
     7b8:	3f b5       	in	r19, 0x2f	; 47
     7ba:	80 91 65 00 	lds	r24, 0x0065	; 0x800065 <g_Prescale_mask>
     7be:	90 91 66 00 	lds	r25, 0x0066	; 0x800066 <g_Prescale_mask+0x1>
     7c2:	82 2b       	or	r24, r18
     7c4:	93 2b       	or	r25, r19
     7c6:	9f bd       	out	0x2f, r25	; 47
     7c8:	8e bd       	out	0x2e, r24	; 46



extern ERROR_STATUS Pwm_Start(uint8_t Channel,uint8_t Duty,uint32_t Frequncy){
	
	uint8_t a_u8_error_state = E_OK ;
     7ca:	80 e0       	ldi	r24, 0x00	; 0
			
			ICR1 = ICR_TOP ;
			OCR1B = duty_cycle_tick ;
			TCCR1|=g_Prescale_mask ;
			
			break;
     7cc:	01 c0       	rjmp	.+2      	; 0x7d0 <Pwm_Start+0xba>



extern ERROR_STATUS Pwm_Start(uint8_t Channel,uint8_t Duty,uint32_t Frequncy){
	
	uint8_t a_u8_error_state = E_OK ;
     7ce:	80 e0       	ldi	r24, 0x00	; 0
			
		}
		return a_u8_error_state  ;
	
	
}
     7d0:	df 91       	pop	r29
     7d2:	cf 91       	pop	r28
     7d4:	ff 90       	pop	r15
     7d6:	ef 90       	pop	r14
     7d8:	df 90       	pop	r13
     7da:	cf 90       	pop	r12
     7dc:	08 95       	ret

000007de <Steering_Init>:
 * Return: The error status of the function.			
 * Description: Initiates the module , initialize MOTOR_1 & MOTOR_2 
 * 							
 */

ERROR_STATUS Steering_Init(void){
     7de:	cf 93       	push	r28
	
	ERROR_STATUS state_error = E_OK ;
	
	state_error |= Motor_Init(MOTOR_1);
     7e0:	81 e0       	ldi	r24, 0x01	; 1
     7e2:	0e 94 60 02 	call	0x4c0	; 0x4c0 <Motor_Init>
     7e6:	c8 2f       	mov	r28, r24
	state_error |= Motor_Init(MOTOR_2);
     7e8:	82 e0       	ldi	r24, 0x02	; 2
     7ea:	0e 94 60 02 	call	0x4c0	; 0x4c0 <Motor_Init>
	return state_error;
}
     7ee:	8c 2b       	or	r24, r28
     7f0:	cf 91       	pop	r28
     7f2:	08 95       	ret

000007f4 <Steering_SteerCar>:
 * Return: The error status of the function.			
 * Description: This function controls the command and the speed of the car.
 * 							
 */

ERROR_STATUS Steering_SteerCar(uint8_t Steering_CarCmd, uint8_t speed){
     7f4:	cf 93       	push	r28
     7f6:	df 93       	push	r29
     7f8:	d6 2f       	mov	r29, r22
	ERROR_STATUS state_error = E_OK ;
	
/****************************  set motor direction ********************************************/

	
	switch(Steering_CarCmd){
     7fa:	82 30       	cpi	r24, 0x02	; 2
     7fc:	09 f1       	breq	.+66     	; 0x840 <Steering_SteerCar+0x4c>
     7fe:	28 f4       	brcc	.+10     	; 0x80a <Steering_SteerCar+0x16>
     800:	88 23       	and	r24, r24
     802:	41 f0       	breq	.+16     	; 0x814 <Steering_SteerCar+0x20>
     804:	81 30       	cpi	r24, 0x01	; 1
     806:	89 f0       	breq	.+34     	; 0x82a <Steering_SteerCar+0x36>
     808:	3c c0       	rjmp	.+120    	; 0x882 <__stack+0x23>
     80a:	83 30       	cpi	r24, 0x03	; 3
     80c:	21 f1       	breq	.+72     	; 0x856 <Steering_SteerCar+0x62>
     80e:	84 30       	cpi	r24, 0x04	; 4
     810:	69 f1       	breq	.+90     	; 0x86c <__stack+0xd>
     812:	37 c0       	rjmp	.+110    	; 0x882 <__stack+0x23>
		case CAR_STOP:
		state_error |= Motor_Direction(MOTOR_1,MOTOR_STOP);
     814:	60 e0       	ldi	r22, 0x00	; 0
     816:	81 e0       	ldi	r24, 0x01	; 1
     818:	0e 94 b1 02 	call	0x562	; 0x562 <Motor_Direction>
     81c:	c8 2f       	mov	r28, r24
		state_error |= Motor_Direction(MOTOR_2,MOTOR_STOP);
     81e:	60 e0       	ldi	r22, 0x00	; 0
     820:	82 e0       	ldi	r24, 0x02	; 2
     822:	0e 94 b1 02 	call	0x562	; 0x562 <Motor_Direction>
     826:	c8 2b       	or	r28, r24
		break;
     828:	2d c0       	rjmp	.+90     	; 0x884 <__stack+0x25>
		case CAR_FORWARD:
		state_error |= Motor_Direction(MOTOR_1,MOTOR_FORWARD);
     82a:	61 e0       	ldi	r22, 0x01	; 1
     82c:	81 e0       	ldi	r24, 0x01	; 1
     82e:	0e 94 b1 02 	call	0x562	; 0x562 <Motor_Direction>
     832:	c8 2f       	mov	r28, r24
		state_error |= Motor_Direction(MOTOR_2,MOTOR_FORWARD);
     834:	61 e0       	ldi	r22, 0x01	; 1
     836:	82 e0       	ldi	r24, 0x02	; 2
     838:	0e 94 b1 02 	call	0x562	; 0x562 <Motor_Direction>
     83c:	c8 2b       	or	r28, r24
		break;
     83e:	22 c0       	rjmp	.+68     	; 0x884 <__stack+0x25>
		case CAR_BACKWARD:
		state_error |= Motor_Direction(MOTOR_1,MOTOR_BACKWARD);
     840:	62 e0       	ldi	r22, 0x02	; 2
     842:	81 e0       	ldi	r24, 0x01	; 1
     844:	0e 94 b1 02 	call	0x562	; 0x562 <Motor_Direction>
     848:	c8 2f       	mov	r28, r24
		state_error |= Motor_Direction(MOTOR_2,MOTOR_BACKWARD);
     84a:	62 e0       	ldi	r22, 0x02	; 2
     84c:	82 e0       	ldi	r24, 0x02	; 2
     84e:	0e 94 b1 02 	call	0x562	; 0x562 <Motor_Direction>
     852:	c8 2b       	or	r28, r24
		break;
     854:	17 c0       	rjmp	.+46     	; 0x884 <__stack+0x25>
		case CAR_RIGHT:
		state_error |= Motor_Direction(MOTOR_1,MOTOR_FORWARD);
     856:	61 e0       	ldi	r22, 0x01	; 1
     858:	81 e0       	ldi	r24, 0x01	; 1
     85a:	0e 94 b1 02 	call	0x562	; 0x562 <Motor_Direction>
     85e:	c8 2f       	mov	r28, r24
		state_error |= Motor_Direction(MOTOR_2,MOTOR_BACKWARD);
     860:	62 e0       	ldi	r22, 0x02	; 2
     862:	82 e0       	ldi	r24, 0x02	; 2
     864:	0e 94 b1 02 	call	0x562	; 0x562 <Motor_Direction>
     868:	c8 2b       	or	r28, r24
		break;
     86a:	0c c0       	rjmp	.+24     	; 0x884 <__stack+0x25>
		case CAR_LEFT:
		state_error |= Motor_Direction(MOTOR_2,MOTOR_BACKWARD);
     86c:	62 e0       	ldi	r22, 0x02	; 2
     86e:	82 e0       	ldi	r24, 0x02	; 2
     870:	0e 94 b1 02 	call	0x562	; 0x562 <Motor_Direction>
     874:	c8 2f       	mov	r28, r24
		state_error |= Motor_Direction(MOTOR_1,MOTOR_FORWARD);
     876:	61 e0       	ldi	r22, 0x01	; 1
     878:	81 e0       	ldi	r24, 0x01	; 1
     87a:	0e 94 b1 02 	call	0x562	; 0x562 <Motor_Direction>
     87e:	c8 2b       	or	r28, r24
		break;
     880:	01 c0       	rjmp	.+2      	; 0x884 <__stack+0x25>
		default:
		state_error |= E_NOK;
     882:	c1 e0       	ldi	r28, 0x01	; 1
		
	}
	
	/****************************  start motor direction ********************************************/

		state_error |= Motor_Start(MOTOR_1,speed);
     884:	6d 2f       	mov	r22, r29
     886:	81 e0       	ldi	r24, 0x01	; 1
     888:	0e 94 18 03 	call	0x630	; 0x630 <Motor_Start>
     88c:	c8 2b       	or	r28, r24
		state_error |= Motor_Start(MOTOR_2,speed);
     88e:	6d 2f       	mov	r22, r29
     890:	82 e0       	ldi	r24, 0x02	; 2
     892:	0e 94 18 03 	call	0x630	; 0x630 <Motor_Start>
		return state_error ;
	
}
     896:	8c 2b       	or	r24, r28
     898:	df 91       	pop	r29
     89a:	cf 91       	pop	r28
     89c:	08 95       	ret

0000089e <Timer_Init>:
 */




ERROR_STATUS Timer_Init(Timer_cfg_s* Timer_cfg){
     89e:	fc 01       	movw	r30, r24
	
	uint8_t a_u8_error_state = E_OK ;
	
	switch(Timer_cfg->Timer_CH_NO){
     8a0:	80 81       	ld	r24, Z
     8a2:	81 30       	cpi	r24, 0x01	; 1
     8a4:	d9 f0       	breq	.+54     	; 0x8dc <Timer_Init+0x3e>
     8a6:	18 f0       	brcs	.+6      	; 0x8ae <Timer_Init+0x10>
     8a8:	82 30       	cpi	r24, 0x02	; 2
     8aa:	91 f1       	breq	.+100    	; 0x910 <Timer_Init+0x72>
     8ac:	4b c0       	rjmp	.+150    	; 0x944 <Timer_Init+0xa6>
		
/******************** TIMER 0 ***************************/
		case TIMER_CH0 :
			TCCR0 = ZERO_VALUE ;
     8ae:	13 be       	out	0x33, r1	; 51
	
			/*set the PreScale config*/
		
			g_prescaleTimer0 = Timer_cfg->Timer_Prescaler ;
     8b0:	83 81       	ldd	r24, Z+3	; 0x03
     8b2:	80 93 6c 00 	sts	0x006C, r24	; 0x80006c <g_prescaleTimer0>
			g_ModeTimer0 = Timer_cfg->Timer_Mode ;
     8b6:	81 81       	ldd	r24, Z+1	; 0x01
     8b8:	80 93 69 00 	sts	0x0069, r24	; 0x800069 <g_ModeTimer0>
		
			#ifdef NORMAL_MODE
	
				/*set normal or compare mode*/
				
				TCCR0 |= T0_NORMAL_MODE_MASK ;
     8bc:	83 b7       	in	r24, 0x33	; 51
     8be:	83 bf       	out	0x33, r24	; 51
				
				/* set polling or interrupt config*/
				if (Timer_cfg->Timer_Polling_Or_Interrupt==TIMER_POLLING_MODE)
     8c0:	82 81       	ldd	r24, Z+2	; 0x02
     8c2:	81 11       	cpse	r24, r1
     8c4:	04 c0       	rjmp	.+8      	; 0x8ce <Timer_Init+0x30>
				{
					TIMSK |=TIMER0_POLLING_MODE_MASK ;
     8c6:	89 b7       	in	r24, 0x39	; 57
     8c8:	89 bf       	out	0x39, r24	; 57



ERROR_STATUS Timer_Init(Timer_cfg_s* Timer_cfg){
	
	uint8_t a_u8_error_state = E_OK ;
     8ca:	80 e0       	ldi	r24, 0x00	; 0
     8cc:	08 95       	ret
				
				/* set polling or interrupt config*/
				if (Timer_cfg->Timer_Polling_Or_Interrupt==TIMER_POLLING_MODE)
				{
					TIMSK |=TIMER0_POLLING_MODE_MASK ;
				}else if(Timer_cfg->Timer_Polling_Or_Interrupt==TIMER_INTERRUPT_MODE){
     8ce:	81 30       	cpi	r24, 0x01	; 1
     8d0:	d9 f5       	brne	.+118    	; 0x948 <Timer_Init+0xaa>
					TIMSK |=TIMER0_INTERRUPT_NORMAL_MASK;
     8d2:	89 b7       	in	r24, 0x39	; 57
     8d4:	81 60       	ori	r24, 0x01	; 1
     8d6:	89 bf       	out	0x39, r24	; 57



ERROR_STATUS Timer_Init(Timer_cfg_s* Timer_cfg){
	
	uint8_t a_u8_error_state = E_OK ;
     8d8:	80 e0       	ldi	r24, 0x00	; 0
     8da:	08 95       	ret
		
/**************************** TIMER 1 ********************************/

		case TIMER_CH1 :
		
			TCCR1 = ZERO_VALUE;
     8dc:	1f bc       	out	0x2f, r1	; 47
     8de:	1e bc       	out	0x2e, r1	; 46
			
			/*set the PreScale config*/
			
			g_prescaleTimer1 = Timer_cfg->Timer_Prescaler ;
     8e0:	83 81       	ldd	r24, Z+3	; 0x03
     8e2:	80 93 6b 00 	sts	0x006B, r24	; 0x80006b <g_prescaleTimer1>
			g_ModeTimer1 = Timer_cfg->Timer_Mode ;
     8e6:	81 81       	ldd	r24, Z+1	; 0x01
     8e8:	80 93 68 00 	sts	0x0068, r24	; 0x800068 <g_ModeTimer1>
		
			#ifdef NORMAL_MODE
			
				/*set normal or compare mode*/
				
				TCCR1 |= T1_NORMAL_MODE_MASK ;
     8ec:	8e b5       	in	r24, 0x2e	; 46
     8ee:	9f b5       	in	r25, 0x2f	; 47
     8f0:	9f bd       	out	0x2f, r25	; 47
     8f2:	8e bd       	out	0x2e, r24	; 46
				
				/* set polling or interrupt config*/
				if (Timer_cfg->Timer_Polling_Or_Interrupt==TIMER_POLLING_MODE)
     8f4:	82 81       	ldd	r24, Z+2	; 0x02
     8f6:	81 11       	cpse	r24, r1
     8f8:	04 c0       	rjmp	.+8      	; 0x902 <Timer_Init+0x64>
				{
					TIMSK |=TIMER1_POLLING_MODE_MASK ;
     8fa:	89 b7       	in	r24, 0x39	; 57
     8fc:	89 bf       	out	0x39, r24	; 57



ERROR_STATUS Timer_Init(Timer_cfg_s* Timer_cfg){
	
	uint8_t a_u8_error_state = E_OK ;
     8fe:	80 e0       	ldi	r24, 0x00	; 0
     900:	08 95       	ret
				
				/* set polling or interrupt config*/
				if (Timer_cfg->Timer_Polling_Or_Interrupt==TIMER_POLLING_MODE)
				{
					TIMSK |=TIMER1_POLLING_MODE_MASK ;
					}else if(Timer_cfg->Timer_Polling_Or_Interrupt==TIMER_INTERRUPT_MODE){
     902:	81 30       	cpi	r24, 0x01	; 1
     904:	19 f5       	brne	.+70     	; 0x94c <Timer_Init+0xae>
					TIMSK |=TIMER1_INTERRUPT_NORMAL_MASK;
     906:	89 b7       	in	r24, 0x39	; 57
     908:	84 60       	ori	r24, 0x04	; 4
     90a:	89 bf       	out	0x39, r24	; 57



ERROR_STATUS Timer_Init(Timer_cfg_s* Timer_cfg){
	
	uint8_t a_u8_error_state = E_OK ;
     90c:	80 e0       	ldi	r24, 0x00	; 0
     90e:	08 95       	ret
		break;
///////////////////////TIMER 2 //////////////////////////

		case TIMER_CH2 :
		
			TCCR2 = ZERO_VALUE;
     910:	15 bc       	out	0x25, r1	; 37
			
			/*set synchronous or asynchronous */
			
			ASSR &= 0xF0 ;
     912:	82 b5       	in	r24, 0x22	; 34
     914:	80 7f       	andi	r24, 0xF0	; 240
     916:	82 bd       	out	0x22, r24	; 34

			/*set the PreScale config*/
			
			g_prescaleTimer2 = Timer_cfg->Timer_Prescaler ;
     918:	83 81       	ldd	r24, Z+3	; 0x03
     91a:	80 93 6a 00 	sts	0x006A, r24	; 0x80006a <g_prescaleTimer2>
			g_ModeTimer2 = Timer_cfg->Timer_Mode ;
     91e:	81 81       	ldd	r24, Z+1	; 0x01
     920:	80 93 67 00 	sts	0x0067, r24	; 0x800067 <g_ModeTimer2>
			
			#ifdef NORMAL_MODE
			
			/*set normal or compare mode*/
			
			TCCR2 |= T2_NORMAL_MODE_MASK ;
     924:	85 b5       	in	r24, 0x25	; 37
     926:	85 bd       	out	0x25, r24	; 37
			
			/* set polling or interrupt config*/
			if (Timer_cfg->Timer_Polling_Or_Interrupt==TIMER_POLLING_MODE)
     928:	82 81       	ldd	r24, Z+2	; 0x02
     92a:	81 11       	cpse	r24, r1
     92c:	04 c0       	rjmp	.+8      	; 0x936 <Timer_Init+0x98>
			{
				TIMSK |=TIMER2_POLLING_MODE_MASK ;
     92e:	89 b7       	in	r24, 0x39	; 57
     930:	89 bf       	out	0x39, r24	; 57



ERROR_STATUS Timer_Init(Timer_cfg_s* Timer_cfg){
	
	uint8_t a_u8_error_state = E_OK ;
     932:	80 e0       	ldi	r24, 0x00	; 0
     934:	08 95       	ret
			
			/* set polling or interrupt config*/
			if (Timer_cfg->Timer_Polling_Or_Interrupt==TIMER_POLLING_MODE)
			{
				TIMSK |=TIMER2_POLLING_MODE_MASK ;
				}else if(Timer_cfg->Timer_Polling_Or_Interrupt==TIMER_INTERRUPT_MODE){
     936:	81 30       	cpi	r24, 0x01	; 1
     938:	59 f4       	brne	.+22     	; 0x950 <Timer_Init+0xb2>
				TIMSK |=TIMER2_INTERRUPT_NORMAL_MASK;
     93a:	89 b7       	in	r24, 0x39	; 57
     93c:	80 64       	ori	r24, 0x40	; 64
     93e:	89 bf       	out	0x39, r24	; 57



ERROR_STATUS Timer_Init(Timer_cfg_s* Timer_cfg){
	
	uint8_t a_u8_error_state = E_OK ;
     940:	80 e0       	ldi	r24, 0x00	; 0
     942:	08 95       	ret
		
		break;
///////////////////////ERROR //////////////////////////

		default :
		a_u8_error_state |= E_NOK ;
     944:	81 e0       	ldi	r24, 0x01	; 1
     946:	08 95       	ret



ERROR_STATUS Timer_Init(Timer_cfg_s* Timer_cfg){
	
	uint8_t a_u8_error_state = E_OK ;
     948:	80 e0       	ldi	r24, 0x00	; 0
     94a:	08 95       	ret
     94c:	80 e0       	ldi	r24, 0x00	; 0
     94e:	08 95       	ret
     950:	80 e0       	ldi	r24, 0x00	; 0
		break;
		
		
	}//// end switch of channel type
	return a_u8_error_state  ;
}
     952:	08 95       	ret

00000954 <Timer_Stop>:

ERROR_STATUS Timer_Stop(uint8_t Timer_CH_NO){
	
	uint8_t a_u8_error_state = E_OK ;
	
	switch (Timer_CH_NO)
     954:	81 30       	cpi	r24, 0x01	; 1
     956:	49 f0       	breq	.+18     	; 0x96a <Timer_Stop+0x16>
     958:	18 f0       	brcs	.+6      	; 0x960 <Timer_Stop+0xc>
     95a:	82 30       	cpi	r24, 0x02	; 2
     95c:	69 f0       	breq	.+26     	; 0x978 <Timer_Stop+0x24>
     95e:	11 c0       	rjmp	.+34     	; 0x982 <Timer_Stop+0x2e>
	{
		case TIMER_CH0 :
		TCCR0 &=TIMER0_NO_CLOCK_MASK;
     960:	83 b7       	in	r24, 0x33	; 51
     962:	88 7f       	andi	r24, 0xF8	; 248
     964:	83 bf       	out	0x33, r24	; 51
 */


ERROR_STATUS Timer_Stop(uint8_t Timer_CH_NO){
	
	uint8_t a_u8_error_state = E_OK ;
     966:	80 e0       	ldi	r24, 0x00	; 0
	
	switch (Timer_CH_NO)
	{
		case TIMER_CH0 :
		TCCR0 &=TIMER0_NO_CLOCK_MASK;
		break;
     968:	08 95       	ret
		case TIMER_CH1 :
		TCCR1 &=TIMER1_NO_CLOCK_MASK;
     96a:	8e b5       	in	r24, 0x2e	; 46
     96c:	9f b5       	in	r25, 0x2f	; 47
     96e:	88 7f       	andi	r24, 0xF8	; 248
     970:	9f bd       	out	0x2f, r25	; 47
     972:	8e bd       	out	0x2e, r24	; 46
 */


ERROR_STATUS Timer_Stop(uint8_t Timer_CH_NO){
	
	uint8_t a_u8_error_state = E_OK ;
     974:	80 e0       	ldi	r24, 0x00	; 0
		case TIMER_CH0 :
		TCCR0 &=TIMER0_NO_CLOCK_MASK;
		break;
		case TIMER_CH1 :
		TCCR1 &=TIMER1_NO_CLOCK_MASK;
		break;
     976:	08 95       	ret
		case TIMER_CH2 :
		TCCR2 &=TIMER2_NO_CLOCK_MASK;
     978:	85 b5       	in	r24, 0x25	; 37
     97a:	88 7f       	andi	r24, 0xF8	; 248
     97c:	85 bd       	out	0x25, r24	; 37
 */


ERROR_STATUS Timer_Stop(uint8_t Timer_CH_NO){
	
	uint8_t a_u8_error_state = E_OK ;
     97e:	80 e0       	ldi	r24, 0x00	; 0
		case TIMER_CH1 :
		TCCR1 &=TIMER1_NO_CLOCK_MASK;
		break;
		case TIMER_CH2 :
		TCCR2 &=TIMER2_NO_CLOCK_MASK;
		break;
     980:	08 95       	ret
		default:
		a_u8_error_state |=  E_NOK ;
     982:	81 e0       	ldi	r24, 0x01	; 1
		break;
	}
	return a_u8_error_state ;
	
	
}
     984:	08 95       	ret

00000986 <Timer_GetStatus>:



ERROR_STATUS Timer_GetStatus(uint8_t Timer_CH_NO, uint8_t* Data){
	
	uint8_t a_u8_error_state = E_OK ;
     986:	91 e0       	ldi	r25, 0x01	; 1
     988:	61 15       	cp	r22, r1
     98a:	71 05       	cpc	r23, r1
     98c:	09 f0       	breq	.+2      	; 0x990 <Timer_GetStatus+0xa>
     98e:	90 e0       	ldi	r25, 0x00	; 0
	{
		a_u8_error_state |= E_NOK ;
	}
	
	
	switch (Timer_CH_NO )
     990:	81 30       	cpi	r24, 0x01	; 1
     992:	89 f0       	breq	.+34     	; 0x9b6 <Timer_GetStatus+0x30>
     994:	18 f0       	brcs	.+6      	; 0x99c <Timer_GetStatus+0x16>
     996:	82 30       	cpi	r24, 0x02	; 2
     998:	d9 f0       	breq	.+54     	; 0x9d0 <Timer_GetStatus+0x4a>
     99a:	27 c0       	rjmp	.+78     	; 0x9ea <Timer_GetStatus+0x64>
	{
		case TIMER_CH0 :
			if((TIFR&T0_OVF_FLAG_MASK) > ZERO_VALUE)
     99c:	08 b6       	in	r0, 0x38	; 56
     99e:	00 fe       	sbrs	r0, 0
     9a0:	07 c0       	rjmp	.+14     	; 0x9b0 <Timer_GetStatus+0x2a>
			{
				(*Data) = TRUE ;
     9a2:	81 e0       	ldi	r24, 0x01	; 1
     9a4:	fb 01       	movw	r30, r22
     9a6:	80 83       	st	Z, r24
				TIFR |=T0_OVF_FLAG_MASK ;
     9a8:	88 b7       	in	r24, 0x38	; 56
     9aa:	81 60       	ori	r24, 0x01	; 1
     9ac:	88 bf       	out	0x38, r24	; 56
     9ae:	1e c0       	rjmp	.+60     	; 0x9ec <Timer_GetStatus+0x66>
			}else
			(*Data) = FALSE ;
     9b0:	fb 01       	movw	r30, r22
     9b2:	10 82       	st	Z, r1
     9b4:	1b c0       	rjmp	.+54     	; 0x9ec <Timer_GetStatus+0x66>
			break;
		
		case TIMER_CH1 :
			if((TIFR&T1_OVF_FLAG_MASK) > ZERO_VALUE)
     9b6:	08 b6       	in	r0, 0x38	; 56
     9b8:	02 fe       	sbrs	r0, 2
     9ba:	07 c0       	rjmp	.+14     	; 0x9ca <Timer_GetStatus+0x44>
			{
				(*Data) = TRUE ;
     9bc:	81 e0       	ldi	r24, 0x01	; 1
     9be:	fb 01       	movw	r30, r22
     9c0:	80 83       	st	Z, r24
				TIFR |=T1_OVF_FLAG_MASK ;
     9c2:	88 b7       	in	r24, 0x38	; 56
     9c4:	84 60       	ori	r24, 0x04	; 4
     9c6:	88 bf       	out	0x38, r24	; 56
     9c8:	11 c0       	rjmp	.+34     	; 0x9ec <Timer_GetStatus+0x66>
			}else
			(*Data) = FALSE ;
     9ca:	fb 01       	movw	r30, r22
     9cc:	10 82       	st	Z, r1
     9ce:	0e c0       	rjmp	.+28     	; 0x9ec <Timer_GetStatus+0x66>
			break;
			
		case TIMER_CH2 :
			if((TIFR&T2_OVF_FLAG_MASK) > ZERO_VALUE)
     9d0:	08 b6       	in	r0, 0x38	; 56
     9d2:	06 fe       	sbrs	r0, 6
     9d4:	07 c0       	rjmp	.+14     	; 0x9e4 <Timer_GetStatus+0x5e>
			{
				(*Data) = TRUE ;
     9d6:	81 e0       	ldi	r24, 0x01	; 1
     9d8:	fb 01       	movw	r30, r22
     9da:	80 83       	st	Z, r24
				TIFR |=T2_OVF_FLAG_MASK ;
     9dc:	88 b7       	in	r24, 0x38	; 56
     9de:	80 64       	ori	r24, 0x40	; 64
     9e0:	88 bf       	out	0x38, r24	; 56
     9e2:	04 c0       	rjmp	.+8      	; 0x9ec <Timer_GetStatus+0x66>
			}else
			(*Data) = FALSE ;
     9e4:	fb 01       	movw	r30, r22
     9e6:	10 82       	st	Z, r1
     9e8:	01 c0       	rjmp	.+2      	; 0x9ec <Timer_GetStatus+0x66>
			break;
		
		default: 
		a_u8_error_state |= E_NOK ;	
     9ea:	91 e0       	ldi	r25, 0x01	; 1
		
	}
	
	return a_u8_error_state  ;
	
}
     9ec:	89 2f       	mov	r24, r25
     9ee:	08 95       	ret

000009f0 <Timer_GetValue>:
 */


ERROR_STATUS Timer_GetValue(uint8_t Timer_CH_NO, uint16_t* Data){
	
	uint8_t a_u8_error_state = E_OK ;
     9f0:	91 e0       	ldi	r25, 0x01	; 1
     9f2:	61 15       	cp	r22, r1
     9f4:	71 05       	cpc	r23, r1
     9f6:	09 f0       	breq	.+2      	; 0x9fa <Timer_GetValue+0xa>
     9f8:	90 e0       	ldi	r25, 0x00	; 0
	if (Data == NULL)
	{
		a_u8_error_state |= E_NOK ;
	}
	
		switch (Timer_CH_NO)
     9fa:	81 30       	cpi	r24, 0x01	; 1
     9fc:	51 f0       	breq	.+20     	; 0xa12 <Timer_GetValue+0x22>
     9fe:	18 f0       	brcs	.+6      	; 0xa06 <Timer_GetValue+0x16>
     a00:	82 30       	cpi	r24, 0x02	; 2
     a02:	69 f0       	breq	.+26     	; 0xa1e <Timer_GetValue+0x2e>
     a04:	12 c0       	rjmp	.+36     	; 0xa2a <Timer_GetValue+0x3a>
		{
			case TIMER_CH0 :
			(*Data) = TCNT0 ;
     a06:	22 b7       	in	r18, 0x32	; 50
     a08:	30 e0       	ldi	r19, 0x00	; 0
     a0a:	fb 01       	movw	r30, r22
     a0c:	31 83       	std	Z+1, r19	; 0x01
     a0e:	20 83       	st	Z, r18
			break;
     a10:	0d c0       	rjmp	.+26     	; 0xa2c <Timer_GetValue+0x3c>
			case TIMER_CH1 :
			(*Data) = TCNT1 ;
     a12:	2c b5       	in	r18, 0x2c	; 44
     a14:	3d b5       	in	r19, 0x2d	; 45
     a16:	fb 01       	movw	r30, r22
     a18:	31 83       	std	Z+1, r19	; 0x01
     a1a:	20 83       	st	Z, r18
			break;
     a1c:	07 c0       	rjmp	.+14     	; 0xa2c <Timer_GetValue+0x3c>
			case TIMER_CH2 :
			(*Data) = TCNT2 ;
     a1e:	24 b5       	in	r18, 0x24	; 36
     a20:	30 e0       	ldi	r19, 0x00	; 0
     a22:	fb 01       	movw	r30, r22
     a24:	31 83       	std	Z+1, r19	; 0x01
     a26:	20 83       	st	Z, r18
			break;
     a28:	01 c0       	rjmp	.+2      	; 0xa2c <Timer_GetValue+0x3c>
			default:
			a_u8_error_state |= E_NOK ;
     a2a:	91 e0       	ldi	r25, 0x01	; 1
			break;
		}
		return a_u8_error_state  ;
	
}
     a2c:	89 2f       	mov	r24, r25
     a2e:	08 95       	ret

00000a30 <Timer_SetValue>:

ERROR_STATUS Timer_SetValue(uint8_t Timer_CH_NO, uint16_t Data){
	
		uint8_t a_u8_error_state = E_OK ;
	
		switch (Timer_CH_NO)
     a30:	81 30       	cpi	r24, 0x01	; 1
     a32:	39 f0       	breq	.+14     	; 0xa42 <Timer_SetValue+0x12>
     a34:	18 f0       	brcs	.+6      	; 0xa3c <Timer_SetValue+0xc>
     a36:	82 30       	cpi	r24, 0x02	; 2
     a38:	41 f0       	breq	.+16     	; 0xa4a <Timer_SetValue+0x1a>
     a3a:	0a c0       	rjmp	.+20     	; 0xa50 <Timer_SetValue+0x20>
		{
			case TIMER_CH0 :
			 TCNT0 =(Data)  ;
     a3c:	62 bf       	out	0x32, r22	; 50
 */


ERROR_STATUS Timer_SetValue(uint8_t Timer_CH_NO, uint16_t Data){
	
		uint8_t a_u8_error_state = E_OK ;
     a3e:	80 e0       	ldi	r24, 0x00	; 0
	
		switch (Timer_CH_NO)
		{
			case TIMER_CH0 :
			 TCNT0 =(Data)  ;
			break;
     a40:	08 95       	ret
			case TIMER_CH1 :
			 TCNT1 =(Data) ;
     a42:	7d bd       	out	0x2d, r23	; 45
     a44:	6c bd       	out	0x2c, r22	; 44
 */


ERROR_STATUS Timer_SetValue(uint8_t Timer_CH_NO, uint16_t Data){
	
		uint8_t a_u8_error_state = E_OK ;
     a46:	80 e0       	ldi	r24, 0x00	; 0
			case TIMER_CH0 :
			 TCNT0 =(Data)  ;
			break;
			case TIMER_CH1 :
			 TCNT1 =(Data) ;
			break;
     a48:	08 95       	ret
			case TIMER_CH2 :
			 TCNT2 =(Data) ;
     a4a:	64 bd       	out	0x24, r22	; 36
 */


ERROR_STATUS Timer_SetValue(uint8_t Timer_CH_NO, uint16_t Data){
	
		uint8_t a_u8_error_state = E_OK ;
     a4c:	80 e0       	ldi	r24, 0x00	; 0
			case TIMER_CH1 :
			 TCNT1 =(Data) ;
			break;
			case TIMER_CH2 :
			 TCNT2 =(Data) ;
			break;
     a4e:	08 95       	ret
			default:
			a_u8_error_state |= E_NOK ;
     a50:	81 e0       	ldi	r24, 0x01	; 1
			break;
		}
		return a_u8_error_state ;
		
}
     a52:	08 95       	ret

00000a54 <Timer_Start>:
 * Description: This function starts the needed timer.
 * 							
 */
	
	
ERROR_STATUS Timer_Start(uint8_t Timer_CH_NO, uint16_t Timer_Count){
     a54:	cf 93       	push	r28
     a56:	c8 2f       	mov	r28, r24
	
		uint8_t a_u8_error_state = E_OK ;
	
		#ifdef NORMAL_MODE 
		      Timer_SetValue(Timer_CH_NO,256-Timer_Count)	;
     a58:	80 e0       	ldi	r24, 0x00	; 0
     a5a:	91 e0       	ldi	r25, 0x01	; 1
     a5c:	9c 01       	movw	r18, r24
     a5e:	26 1b       	sub	r18, r22
     a60:	37 0b       	sbc	r19, r23
     a62:	b9 01       	movw	r22, r18
     a64:	8c 2f       	mov	r24, r28
     a66:	0e 94 18 05 	call	0xa30	; 0xa30 <Timer_SetValue>
			}
		
			
		#endif
	
		switch (Timer_CH_NO)
     a6a:	c1 30       	cpi	r28, 0x01	; 1
     a6c:	09 f4       	brne	.+2      	; 0xa70 <Timer_Start+0x1c>
     a6e:	48 c0       	rjmp	.+144    	; 0xb00 <Timer_Start+0xac>
     a70:	20 f0       	brcs	.+8      	; 0xa7a <Timer_Start+0x26>
     a72:	c2 30       	cpi	r28, 0x02	; 2
     a74:	09 f4       	brne	.+2      	; 0xa78 <Timer_Start+0x24>
     a76:	98 c0       	rjmp	.+304    	; 0xba8 <Timer_Start+0x154>
     a78:	d4 c0       	rjmp	.+424    	; 0xc22 <Timer_Start+0x1ce>
		{
			case TIMER_CH0 :
			if (g_ModeTimer0 ==TIMER_MODE)
     a7a:	80 91 69 00 	lds	r24, 0x0069	; 0x800069 <g_ModeTimer0>
     a7e:	81 11       	cpse	r24, r1
     a80:	30 c0       	rjmp	.+96     	; 0xae2 <Timer_Start+0x8e>
			{
				switch (g_prescaleTimer0)
     a82:	80 91 6c 00 	lds	r24, 0x006C	; 0x80006c <g_prescaleTimer0>
     a86:	82 30       	cpi	r24, 0x02	; 2
     a88:	c1 f0       	breq	.+48     	; 0xaba <Timer_Start+0x66>
     a8a:	28 f4       	brcc	.+10     	; 0xa96 <Timer_Start+0x42>
     a8c:	88 23       	and	r24, r24
     a8e:	59 f0       	breq	.+22     	; 0xaa6 <Timer_Start+0x52>
     a90:	81 30       	cpi	r24, 0x01	; 1
     a92:	71 f0       	breq	.+28     	; 0xab0 <Timer_Start+0x5c>
     a94:	bc c0       	rjmp	.+376    	; 0xc0e <Timer_Start+0x1ba>
     a96:	86 30       	cpi	r24, 0x06	; 6
     a98:	d1 f0       	breq	.+52     	; 0xace <Timer_Start+0x7a>
     a9a:	87 30       	cpi	r24, 0x07	; 7
     a9c:	e9 f0       	breq	.+58     	; 0xad8 <Timer_Start+0x84>
     a9e:	84 30       	cpi	r24, 0x04	; 4
     aa0:	09 f0       	breq	.+2      	; 0xaa4 <Timer_Start+0x50>
     aa2:	b5 c0       	rjmp	.+362    	; 0xc0e <Timer_Start+0x1ba>
     aa4:	0f c0       	rjmp	.+30     	; 0xac4 <Timer_Start+0x70>
				{
					case TIMER_NO_CLOCK :
					TCCR0 |=TIMER0_NO_CLOCK_MASK;
     aa6:	83 b7       	in	r24, 0x33	; 51
     aa8:	88 6f       	ori	r24, 0xF8	; 248
     aaa:	83 bf       	out	0x33, r24	; 51
 */
	
	
ERROR_STATUS Timer_Start(uint8_t Timer_CH_NO, uint16_t Timer_Count){
	
		uint8_t a_u8_error_state = E_OK ;
     aac:	80 e0       	ldi	r24, 0x00	; 0
			{
				switch (g_prescaleTimer0)
				{
					case TIMER_NO_CLOCK :
					TCCR0 |=TIMER0_NO_CLOCK_MASK;
					break;
     aae:	bc c0       	rjmp	.+376    	; 0xc28 <Timer_Start+0x1d4>
					case TIMER_PRESCALER_NO:
					TCCR0 |=TIMER0_PRESCALER_NO_MASK;
     ab0:	83 b7       	in	r24, 0x33	; 51
     ab2:	81 60       	ori	r24, 0x01	; 1
     ab4:	83 bf       	out	0x33, r24	; 51
 */
	
	
ERROR_STATUS Timer_Start(uint8_t Timer_CH_NO, uint16_t Timer_Count){
	
		uint8_t a_u8_error_state = E_OK ;
     ab6:	80 e0       	ldi	r24, 0x00	; 0
					case TIMER_NO_CLOCK :
					TCCR0 |=TIMER0_NO_CLOCK_MASK;
					break;
					case TIMER_PRESCALER_NO:
					TCCR0 |=TIMER0_PRESCALER_NO_MASK;
					break;
     ab8:	b7 c0       	rjmp	.+366    	; 0xc28 <Timer_Start+0x1d4>
					case TIMER_PRESCALER_8 :
					TCCR0 |= TIMER0_PRESCALER_8_MASK ;
     aba:	83 b7       	in	r24, 0x33	; 51
     abc:	82 60       	ori	r24, 0x02	; 2
     abe:	83 bf       	out	0x33, r24	; 51
 */
	
	
ERROR_STATUS Timer_Start(uint8_t Timer_CH_NO, uint16_t Timer_Count){
	
		uint8_t a_u8_error_state = E_OK ;
     ac0:	80 e0       	ldi	r24, 0x00	; 0
					case TIMER_PRESCALER_NO:
					TCCR0 |=TIMER0_PRESCALER_NO_MASK;
					break;
					case TIMER_PRESCALER_8 :
					TCCR0 |= TIMER0_PRESCALER_8_MASK ;
					break;
     ac2:	b2 c0       	rjmp	.+356    	; 0xc28 <Timer_Start+0x1d4>
					case TIMER_PRESCALER_64:
					TCCR0 |= TIMER0_PRESCALER_64_MASK ;
     ac4:	83 b7       	in	r24, 0x33	; 51
     ac6:	83 60       	ori	r24, 0x03	; 3
     ac8:	83 bf       	out	0x33, r24	; 51
 */
	
	
ERROR_STATUS Timer_Start(uint8_t Timer_CH_NO, uint16_t Timer_Count){
	
		uint8_t a_u8_error_state = E_OK ;
     aca:	80 e0       	ldi	r24, 0x00	; 0
					case TIMER_PRESCALER_8 :
					TCCR0 |= TIMER0_PRESCALER_8_MASK ;
					break;
					case TIMER_PRESCALER_64:
					TCCR0 |= TIMER0_PRESCALER_64_MASK ;
					break;
     acc:	ad c0       	rjmp	.+346    	; 0xc28 <Timer_Start+0x1d4>
					case TIMER_PRESCALER_256:
					TCCR0 |= TIMER0_PRESCALER_256_MASK ;
     ace:	83 b7       	in	r24, 0x33	; 51
     ad0:	84 60       	ori	r24, 0x04	; 4
     ad2:	83 bf       	out	0x33, r24	; 51
 */
	
	
ERROR_STATUS Timer_Start(uint8_t Timer_CH_NO, uint16_t Timer_Count){
	
		uint8_t a_u8_error_state = E_OK ;
     ad4:	80 e0       	ldi	r24, 0x00	; 0
					TCCR0 |= TIMER0_PRESCALER_64_MASK ;
					break;
					case TIMER_PRESCALER_256:
					TCCR0 |= TIMER0_PRESCALER_256_MASK ;

					break;
     ad6:	a8 c0       	rjmp	.+336    	; 0xc28 <Timer_Start+0x1d4>
					case TIMER_PRESCALER_1024:
					TCCR0 |= TIMER0_PRESCALER_1024_MASK ;
     ad8:	83 b7       	in	r24, 0x33	; 51
     ada:	85 60       	ori	r24, 0x05	; 5
     adc:	83 bf       	out	0x33, r24	; 51
 */
	
	
ERROR_STATUS Timer_Start(uint8_t Timer_CH_NO, uint16_t Timer_Count){
	
		uint8_t a_u8_error_state = E_OK ;
     ade:	80 e0       	ldi	r24, 0x00	; 0

					break;
					case TIMER_PRESCALER_1024:
					TCCR0 |= TIMER0_PRESCALER_1024_MASK ;

					break;
     ae0:	a3 c0       	rjmp	.+326    	; 0xc28 <Timer_Start+0x1d4>
					a_u8_error_state |= E_NOK ;
					
					
				}
				
			}else if (g_ModeTimer0 == COUNTER_RISING_MODE){
     ae2:	81 30       	cpi	r24, 0x01	; 1
     ae4:	29 f4       	brne	.+10     	; 0xaf0 <Timer_Start+0x9c>
				
				TCCR0|= COUNTER_RISING_MODE_MASK ;
     ae6:	83 b7       	in	r24, 0x33	; 51
     ae8:	87 60       	ori	r24, 0x07	; 7
     aea:	83 bf       	out	0x33, r24	; 51
 */
	
	
ERROR_STATUS Timer_Start(uint8_t Timer_CH_NO, uint16_t Timer_Count){
	
		uint8_t a_u8_error_state = E_OK ;
     aec:	80 e0       	ldi	r24, 0x00	; 0
     aee:	9c c0       	rjmp	.+312    	; 0xc28 <Timer_Start+0x1d4>
				
			}else if (g_ModeTimer0 == COUNTER_RISING_MODE){
				
				TCCR0|= COUNTER_RISING_MODE_MASK ;
				
			}else if (g_ModeTimer0 == COUNTER_FALLING_MODE){
     af0:	82 30       	cpi	r24, 0x02	; 2
     af2:	09 f0       	breq	.+2      	; 0xaf6 <Timer_Start+0xa2>
     af4:	8e c0       	rjmp	.+284    	; 0xc12 <Timer_Start+0x1be>
				
				TCCR0 |= COUNTER_FALLING_MODE_MASK ;
     af6:	83 b7       	in	r24, 0x33	; 51
     af8:	86 60       	ori	r24, 0x06	; 6
     afa:	83 bf       	out	0x33, r24	; 51
 */
	
	
ERROR_STATUS Timer_Start(uint8_t Timer_CH_NO, uint16_t Timer_Count){
	
		uint8_t a_u8_error_state = E_OK ;
     afc:	80 e0       	ldi	r24, 0x00	; 0
     afe:	94 c0       	rjmp	.+296    	; 0xc28 <Timer_Start+0x1d4>
////////////// channel one /////////////////////

			case TIMER_CH1 :
			
			
			if (g_ModeTimer1 ==TIMER_MODE)
     b00:	80 91 68 00 	lds	r24, 0x0068	; 0x800068 <g_ModeTimer1>
     b04:	81 11       	cpse	r24, r1
     b06:	3d c0       	rjmp	.+122    	; 0xb82 <Timer_Start+0x12e>
			{
				switch (g_prescaleTimer1)
     b08:	80 91 6b 00 	lds	r24, 0x006B	; 0x80006b <g_prescaleTimer1>
     b0c:	82 30       	cpi	r24, 0x02	; 2
     b0e:	e9 f0       	breq	.+58     	; 0xb4a <Timer_Start+0xf6>
     b10:	28 f4       	brcc	.+10     	; 0xb1c <Timer_Start+0xc8>
     b12:	88 23       	and	r24, r24
     b14:	59 f0       	breq	.+22     	; 0xb2c <Timer_Start+0xd8>
     b16:	81 30       	cpi	r24, 0x01	; 1
     b18:	89 f0       	breq	.+34     	; 0xb3c <Timer_Start+0xe8>
     b1a:	7d c0       	rjmp	.+250    	; 0xc16 <Timer_Start+0x1c2>
     b1c:	86 30       	cpi	r24, 0x06	; 6
     b1e:	19 f1       	breq	.+70     	; 0xb66 <Timer_Start+0x112>
     b20:	87 30       	cpi	r24, 0x07	; 7
     b22:	41 f1       	breq	.+80     	; 0xb74 <Timer_Start+0x120>
     b24:	84 30       	cpi	r24, 0x04	; 4
     b26:	09 f0       	breq	.+2      	; 0xb2a <Timer_Start+0xd6>
     b28:	76 c0       	rjmp	.+236    	; 0xc16 <Timer_Start+0x1c2>
     b2a:	16 c0       	rjmp	.+44     	; 0xb58 <Timer_Start+0x104>
				{
					case TIMER_NO_CLOCK :
					TCCR1 |=TIMER1_NO_CLOCK_MASK;
     b2c:	8e b5       	in	r24, 0x2e	; 46
     b2e:	9f b5       	in	r25, 0x2f	; 47
     b30:	88 6f       	ori	r24, 0xF8	; 248
     b32:	9f 6f       	ori	r25, 0xFF	; 255
     b34:	9f bd       	out	0x2f, r25	; 47
     b36:	8e bd       	out	0x2e, r24	; 46
 */
	
	
ERROR_STATUS Timer_Start(uint8_t Timer_CH_NO, uint16_t Timer_Count){
	
		uint8_t a_u8_error_state = E_OK ;
     b38:	80 e0       	ldi	r24, 0x00	; 0
			{
				switch (g_prescaleTimer1)
				{
					case TIMER_NO_CLOCK :
					TCCR1 |=TIMER1_NO_CLOCK_MASK;
					break;
     b3a:	76 c0       	rjmp	.+236    	; 0xc28 <Timer_Start+0x1d4>
					case TIMER_PRESCALER_NO:
					TCCR1 |=TIMER1_PRESCALER_NO_MASK;
     b3c:	8e b5       	in	r24, 0x2e	; 46
     b3e:	9f b5       	in	r25, 0x2f	; 47
     b40:	81 60       	ori	r24, 0x01	; 1
     b42:	9f bd       	out	0x2f, r25	; 47
     b44:	8e bd       	out	0x2e, r24	; 46
 */
	
	
ERROR_STATUS Timer_Start(uint8_t Timer_CH_NO, uint16_t Timer_Count){
	
		uint8_t a_u8_error_state = E_OK ;
     b46:	80 e0       	ldi	r24, 0x00	; 0
					case TIMER_NO_CLOCK :
					TCCR1 |=TIMER1_NO_CLOCK_MASK;
					break;
					case TIMER_PRESCALER_NO:
					TCCR1 |=TIMER1_PRESCALER_NO_MASK;
					break;
     b48:	6f c0       	rjmp	.+222    	; 0xc28 <Timer_Start+0x1d4>
					case TIMER_PRESCALER_8 :
					TCCR1 |= TIMER1_PRESCALER_8_MASK ;
     b4a:	8e b5       	in	r24, 0x2e	; 46
     b4c:	9f b5       	in	r25, 0x2f	; 47
     b4e:	82 60       	ori	r24, 0x02	; 2
     b50:	9f bd       	out	0x2f, r25	; 47
     b52:	8e bd       	out	0x2e, r24	; 46
 */
	
	
ERROR_STATUS Timer_Start(uint8_t Timer_CH_NO, uint16_t Timer_Count){
	
		uint8_t a_u8_error_state = E_OK ;
     b54:	80 e0       	ldi	r24, 0x00	; 0
					case TIMER_PRESCALER_NO:
					TCCR1 |=TIMER1_PRESCALER_NO_MASK;
					break;
					case TIMER_PRESCALER_8 :
					TCCR1 |= TIMER1_PRESCALER_8_MASK ;
					break;
     b56:	68 c0       	rjmp	.+208    	; 0xc28 <Timer_Start+0x1d4>
					case TIMER_PRESCALER_64:
					TCCR1 |= TIMER1_PRESCALER_64_MASK ;
     b58:	8e b5       	in	r24, 0x2e	; 46
     b5a:	9f b5       	in	r25, 0x2f	; 47
     b5c:	83 60       	ori	r24, 0x03	; 3
     b5e:	9f bd       	out	0x2f, r25	; 47
     b60:	8e bd       	out	0x2e, r24	; 46
 */
	
	
ERROR_STATUS Timer_Start(uint8_t Timer_CH_NO, uint16_t Timer_Count){
	
		uint8_t a_u8_error_state = E_OK ;
     b62:	80 e0       	ldi	r24, 0x00	; 0
					case TIMER_PRESCALER_8 :
					TCCR1 |= TIMER1_PRESCALER_8_MASK ;
					break;
					case TIMER_PRESCALER_64:
					TCCR1 |= TIMER1_PRESCALER_64_MASK ;
					break;
     b64:	61 c0       	rjmp	.+194    	; 0xc28 <Timer_Start+0x1d4>
					case TIMER_PRESCALER_256:
					TCCR1 |= TIMER1_PRESCALER_256_MASK ;
     b66:	8e b5       	in	r24, 0x2e	; 46
     b68:	9f b5       	in	r25, 0x2f	; 47
     b6a:	84 60       	ori	r24, 0x04	; 4
     b6c:	9f bd       	out	0x2f, r25	; 47
     b6e:	8e bd       	out	0x2e, r24	; 46
 */
	
	
ERROR_STATUS Timer_Start(uint8_t Timer_CH_NO, uint16_t Timer_Count){
	
		uint8_t a_u8_error_state = E_OK ;
     b70:	80 e0       	ldi	r24, 0x00	; 0
					TCCR1 |= TIMER1_PRESCALER_64_MASK ;
					break;
					case TIMER_PRESCALER_256:
					TCCR1 |= TIMER1_PRESCALER_256_MASK ;

					break;
     b72:	5a c0       	rjmp	.+180    	; 0xc28 <Timer_Start+0x1d4>
					case TIMER_PRESCALER_1024:
					TCCR1 |= TIMER1_PRESCALER_1024_MASK ;
     b74:	8e b5       	in	r24, 0x2e	; 46
     b76:	9f b5       	in	r25, 0x2f	; 47
     b78:	85 60       	ori	r24, 0x05	; 5
     b7a:	9f bd       	out	0x2f, r25	; 47
     b7c:	8e bd       	out	0x2e, r24	; 46
 */
	
	
ERROR_STATUS Timer_Start(uint8_t Timer_CH_NO, uint16_t Timer_Count){
	
		uint8_t a_u8_error_state = E_OK ;
     b7e:	80 e0       	ldi	r24, 0x00	; 0

					break;
					case TIMER_PRESCALER_1024:
					TCCR1 |= TIMER1_PRESCALER_1024_MASK ;

					break;
     b80:	53 c0       	rjmp	.+166    	; 0xc28 <Timer_Start+0x1d4>
					break;
					
					
				}
				
				}else if (g_ModeTimer1 == COUNTER_RISING_MODE){
     b82:	81 30       	cpi	r24, 0x01	; 1
     b84:	39 f4       	brne	.+14     	; 0xb94 <Timer_Start+0x140>
				
				TCCR1|= COUNTER_RISING_MODE_MASK ;
     b86:	8e b5       	in	r24, 0x2e	; 46
     b88:	9f b5       	in	r25, 0x2f	; 47
     b8a:	87 60       	ori	r24, 0x07	; 7
     b8c:	9f bd       	out	0x2f, r25	; 47
     b8e:	8e bd       	out	0x2e, r24	; 46
 */
	
	
ERROR_STATUS Timer_Start(uint8_t Timer_CH_NO, uint16_t Timer_Count){
	
		uint8_t a_u8_error_state = E_OK ;
     b90:	80 e0       	ldi	r24, 0x00	; 0
     b92:	4a c0       	rjmp	.+148    	; 0xc28 <Timer_Start+0x1d4>
				
				}else if (g_ModeTimer1 == COUNTER_RISING_MODE){
				
				TCCR1|= COUNTER_RISING_MODE_MASK ;
				
				}else if (g_ModeTimer1 == COUNTER_FALLING_MODE){
     b94:	82 30       	cpi	r24, 0x02	; 2
     b96:	09 f0       	breq	.+2      	; 0xb9a <Timer_Start+0x146>
     b98:	40 c0       	rjmp	.+128    	; 0xc1a <Timer_Start+0x1c6>
				
				TCCR1 |= COUNTER_FALLING_MODE_MASK ;
     b9a:	8e b5       	in	r24, 0x2e	; 46
     b9c:	9f b5       	in	r25, 0x2f	; 47
     b9e:	86 60       	ori	r24, 0x06	; 6
     ba0:	9f bd       	out	0x2f, r25	; 47
     ba2:	8e bd       	out	0x2e, r24	; 46
 */
	
	
ERROR_STATUS Timer_Start(uint8_t Timer_CH_NO, uint16_t Timer_Count){
	
		uint8_t a_u8_error_state = E_OK ;
     ba4:	80 e0       	ldi	r24, 0x00	; 0
     ba6:	40 c0       	rjmp	.+128    	; 0xc28 <Timer_Start+0x1d4>
			break;
			
//////////////// channel two /////////////////////
			case TIMER_CH2 :
			
			if (g_ModeTimer2 ==TIMER_MODE)
     ba8:	80 91 67 00 	lds	r24, 0x0067	; 0x800067 <g_ModeTimer2>
     bac:	81 11       	cpse	r24, r1
     bae:	3b c0       	rjmp	.+118    	; 0xc26 <Timer_Start+0x1d2>
			{
				switch (g_prescaleTimer2)
     bb0:	80 91 6a 00 	lds	r24, 0x006A	; 0x80006a <g_prescaleTimer2>
     bb4:	82 30       	cpi	r24, 0x02	; 2
     bb6:	b9 f0       	breq	.+46     	; 0xbe6 <Timer_Start+0x192>
     bb8:	28 f4       	brcc	.+10     	; 0xbc4 <Timer_Start+0x170>
     bba:	88 23       	and	r24, r24
     bbc:	51 f0       	breq	.+20     	; 0xbd2 <Timer_Start+0x17e>
     bbe:	81 30       	cpi	r24, 0x01	; 1
     bc0:	69 f0       	breq	.+26     	; 0xbdc <Timer_Start+0x188>
     bc2:	2d c0       	rjmp	.+90     	; 0xc1e <Timer_Start+0x1ca>
     bc4:	86 30       	cpi	r24, 0x06	; 6
     bc6:	c9 f0       	breq	.+50     	; 0xbfa <Timer_Start+0x1a6>
     bc8:	87 30       	cpi	r24, 0x07	; 7
     bca:	e1 f0       	breq	.+56     	; 0xc04 <Timer_Start+0x1b0>
     bcc:	84 30       	cpi	r24, 0x04	; 4
     bce:	39 f5       	brne	.+78     	; 0xc1e <Timer_Start+0x1ca>
     bd0:	0f c0       	rjmp	.+30     	; 0xbf0 <Timer_Start+0x19c>
				{
					case TIMER_NO_CLOCK :
					TCCR2 |=TIMER2_NO_CLOCK_MASK;
     bd2:	85 b5       	in	r24, 0x25	; 37
     bd4:	88 6f       	ori	r24, 0xF8	; 248
     bd6:	85 bd       	out	0x25, r24	; 37
 */
	
	
ERROR_STATUS Timer_Start(uint8_t Timer_CH_NO, uint16_t Timer_Count){
	
		uint8_t a_u8_error_state = E_OK ;
     bd8:	80 e0       	ldi	r24, 0x00	; 0
			{
				switch (g_prescaleTimer2)
				{
					case TIMER_NO_CLOCK :
					TCCR2 |=TIMER2_NO_CLOCK_MASK;
					break;
     bda:	26 c0       	rjmp	.+76     	; 0xc28 <Timer_Start+0x1d4>
					
					case TIMER_PRESCALER_NO:
					TCCR2 |=TIMER2_PRESCALER_NO_MASK;
     bdc:	85 b5       	in	r24, 0x25	; 37
     bde:	81 60       	ori	r24, 0x01	; 1
     be0:	85 bd       	out	0x25, r24	; 37
 */
	
	
ERROR_STATUS Timer_Start(uint8_t Timer_CH_NO, uint16_t Timer_Count){
	
		uint8_t a_u8_error_state = E_OK ;
     be2:	80 e0       	ldi	r24, 0x00	; 0
					TCCR2 |=TIMER2_NO_CLOCK_MASK;
					break;
					
					case TIMER_PRESCALER_NO:
					TCCR2 |=TIMER2_PRESCALER_NO_MASK;
					break;
     be4:	21 c0       	rjmp	.+66     	; 0xc28 <Timer_Start+0x1d4>
					
					case TIMER_PRESCALER_8 :
					TCCR2 |= TIMER2_PRESCALER_8_MASK ;
     be6:	85 b5       	in	r24, 0x25	; 37
     be8:	82 60       	ori	r24, 0x02	; 2
     bea:	85 bd       	out	0x25, r24	; 37
 */
	
	
ERROR_STATUS Timer_Start(uint8_t Timer_CH_NO, uint16_t Timer_Count){
	
		uint8_t a_u8_error_state = E_OK ;
     bec:	80 e0       	ldi	r24, 0x00	; 0
					TCCR2 |=TIMER2_PRESCALER_NO_MASK;
					break;
					
					case TIMER_PRESCALER_8 :
					TCCR2 |= TIMER2_PRESCALER_8_MASK ;
					break;
     bee:	1c c0       	rjmp	.+56     	; 0xc28 <Timer_Start+0x1d4>
					
					case TIMER_PRESCALER_64:
					TCCR2 |= TIMER2_PRESCALER_64_MASK ;
     bf0:	85 b5       	in	r24, 0x25	; 37
     bf2:	84 60       	ori	r24, 0x04	; 4
     bf4:	85 bd       	out	0x25, r24	; 37
 */
	
	
ERROR_STATUS Timer_Start(uint8_t Timer_CH_NO, uint16_t Timer_Count){
	
		uint8_t a_u8_error_state = E_OK ;
     bf6:	80 e0       	ldi	r24, 0x00	; 0
					TCCR2 |= TIMER2_PRESCALER_8_MASK ;
					break;
					
					case TIMER_PRESCALER_64:
					TCCR2 |= TIMER2_PRESCALER_64_MASK ;
					break;
     bf8:	17 c0       	rjmp	.+46     	; 0xc28 <Timer_Start+0x1d4>
					
					case TIMER_PRESCALER_256:
					TCCR2 |= TIMER2_PRESCALER_256_MASK ;
     bfa:	85 b5       	in	r24, 0x25	; 37
     bfc:	86 60       	ori	r24, 0x06	; 6
     bfe:	85 bd       	out	0x25, r24	; 37
 */
	
	
ERROR_STATUS Timer_Start(uint8_t Timer_CH_NO, uint16_t Timer_Count){
	
		uint8_t a_u8_error_state = E_OK ;
     c00:	80 e0       	ldi	r24, 0x00	; 0
					TCCR2 |= TIMER2_PRESCALER_64_MASK ;
					break;
					
					case TIMER_PRESCALER_256:
					TCCR2 |= TIMER2_PRESCALER_256_MASK ;
					break;
     c02:	12 c0       	rjmp	.+36     	; 0xc28 <Timer_Start+0x1d4>
					
					case TIMER_PRESCALER_1024:
					TCCR2 |= TIMER2_PRESCALER_1024_MASK ;
     c04:	85 b5       	in	r24, 0x25	; 37
     c06:	87 60       	ori	r24, 0x07	; 7
     c08:	85 bd       	out	0x25, r24	; 37
 */
	
	
ERROR_STATUS Timer_Start(uint8_t Timer_CH_NO, uint16_t Timer_Count){
	
		uint8_t a_u8_error_state = E_OK ;
     c0a:	80 e0       	ldi	r24, 0x00	; 0
					TCCR2 |= TIMER2_PRESCALER_256_MASK ;
					break;
					
					case TIMER_PRESCALER_1024:
					TCCR2 |= TIMER2_PRESCALER_1024_MASK ;
					break;
     c0c:	0d c0       	rjmp	.+26     	; 0xc28 <Timer_Start+0x1d4>
					case TIMER_PRESCALER_1024:
					TCCR0 |= TIMER0_PRESCALER_1024_MASK ;

					break;
					default:
					a_u8_error_state |= E_NOK ;
     c0e:	81 e0       	ldi	r24, 0x01	; 1
     c10:	0b c0       	rjmp	.+22     	; 0xc28 <Timer_Start+0x1d4>
			}else if (g_ModeTimer0 == COUNTER_FALLING_MODE){
				
				TCCR0 |= COUNTER_FALLING_MODE_MASK ;
				
			}else
				a_u8_error_state |= E_NOK ;
     c12:	81 e0       	ldi	r24, 0x01	; 1
     c14:	09 c0       	rjmp	.+18     	; 0xc28 <Timer_Start+0x1d4>
					case TIMER_PRESCALER_1024:
					TCCR1 |= TIMER1_PRESCALER_1024_MASK ;

					break;
					default:
					a_u8_error_state |= E_NOK;
     c16:	81 e0       	ldi	r24, 0x01	; 1
     c18:	07 c0       	rjmp	.+14     	; 0xc28 <Timer_Start+0x1d4>
				}else if (g_ModeTimer1 == COUNTER_FALLING_MODE){
				
				TCCR1 |= COUNTER_FALLING_MODE_MASK ;
				
				}else 
				a_u8_error_state |= E_NOK ; 
     c1a:	81 e0       	ldi	r24, 0x01	; 1
     c1c:	05 c0       	rjmp	.+10     	; 0xc28 <Timer_Start+0x1d4>
					case TIMER_PRESCALER_1024:
					TCCR2 |= TIMER2_PRESCALER_1024_MASK ;
					break;
					
					default: 
					a_u8_error_state |= E_NOK ;
     c1e:	81 e0       	ldi	r24, 0x01	; 1
			default: 
			return E_NOK ;
			break;
		}/// end switch case channels
		
	return a_u8_error_state ;
     c20:	03 c0       	rjmp	.+6      	; 0xc28 <Timer_Start+0x1d4>
			return E_NOK ;
			// end if 
			break;	
			
			default: 
			return E_NOK ;
     c22:	81 e0       	ldi	r24, 0x01	; 1
     c24:	01 c0       	rjmp	.+2      	; 0xc28 <Timer_Start+0x1d4>
					break;	
					
				}///end switch case prescale
				
			}else
			return E_NOK ;
     c26:	81 e0       	ldi	r24, 0x01	; 1
			break;
		}/// end switch case channels
		
	return a_u8_error_state ;
	
}
     c28:	cf 91       	pop	r28
     c2a:	08 95       	ret

00000c2c <timerDelayMs>:
 *  Author: MENA
 */ 
#include "Timer.h"
#include "TimerDelay.h"

ERROR_STATUS timerDelayMs(uint16_t u16_delay_in_ms){
     c2c:	ef 92       	push	r14
     c2e:	ff 92       	push	r15
     c30:	1f 93       	push	r17
     c32:	cf 93       	push	r28
     c34:	df 93       	push	r29
     c36:	cd b7       	in	r28, 0x3d	; 61
     c38:	de b7       	in	r29, 0x3e	; 62
     c3a:	27 97       	sbiw	r28, 0x07	; 7
     c3c:	0f b6       	in	r0, 0x3f	; 63
     c3e:	f8 94       	cli
     c40:	de bf       	out	0x3e, r29	; 62
     c42:	0f be       	out	0x3f, r0	; 63
     c44:	cd bf       	out	0x3d, r28	; 61
     c46:	7c 01       	movw	r14, r24
	
	ERROR_STATUS state_error = E_OK ;
	
	uint8_t ovf_flag = ZERO_VALUE ;
     c48:	19 82       	std	Y+1, r1	; 0x01
	Timer_cfg_s Timer_cfg ;
	Timer_cfg.Timer_CH_NO = TIMER_CH2 ;
     c4a:	82 e0       	ldi	r24, 0x02	; 2
     c4c:	8a 83       	std	Y+2, r24	; 0x02
	Timer_cfg.Timer_Mode = TIMER_MODE ;
     c4e:	1b 82       	std	Y+3, r1	; 0x03
	Timer_cfg.Timer_Polling_Or_Interrupt = TIMER_POLLING_MODE ;
     c50:	1c 82       	std	Y+4, r1	; 0x04
	Timer_cfg.Timer_Prescaler = TIMER_PRESCALER_64 ;
     c52:	84 e0       	ldi	r24, 0x04	; 4
     c54:	8d 83       	std	Y+5, r24	; 0x05
	
	state_error |= Timer_Init(&Timer_cfg) ;
     c56:	ce 01       	movw	r24, r28
     c58:	02 96       	adiw	r24, 0x02	; 2
     c5a:	0e 94 4f 04 	call	0x89e	; 0x89e <Timer_Init>
     c5e:	18 2f       	mov	r17, r24
	
	/************************************************************************/
	/* 250 number of tick  for 1 millisecond - 11 ticks error due to function calls*/
	/************************************************************************/
		
		state_error |= Timer_Start(Timer_cfg.Timer_CH_NO , 239 );
     c60:	6f ee       	ldi	r22, 0xEF	; 239
     c62:	70 e0       	ldi	r23, 0x00	; 0
     c64:	8a 81       	ldd	r24, Y+2	; 0x02
     c66:	0e 94 2a 05 	call	0xa54	; 0xa54 <Timer_Start>
     c6a:	18 2b       	or	r17, r24
		
		/* delay required in millisecond */
		
		while (u16_delay_in_ms)
     c6c:	e1 14       	cp	r14, r1
     c6e:	f1 04       	cpc	r15, r1
     c70:	81 f0       	breq	.+32     	; 0xc92 <timerDelayMs+0x66>
		{
			/* polling on ovf flag */
			
			state_error |= Timer_GetStatus (Timer_cfg.Timer_CH_NO , &ovf_flag);
     c72:	be 01       	movw	r22, r28
     c74:	6f 5f       	subi	r22, 0xFF	; 255
     c76:	7f 4f       	sbci	r23, 0xFF	; 255
     c78:	8a 81       	ldd	r24, Y+2	; 0x02
     c7a:	0e 94 c3 04 	call	0x986	; 0x986 <Timer_GetStatus>
     c7e:	18 2b       	or	r17, r24
			if(ovf_flag == TRUE)
     c80:	89 81       	ldd	r24, Y+1	; 0x01
     c82:	81 30       	cpi	r24, 0x01	; 1
     c84:	19 f4       	brne	.+6      	; 0xc8c <timerDelayMs+0x60>
			{
				u16_delay_in_ms -- ;
     c86:	81 e0       	ldi	r24, 0x01	; 1
     c88:	e8 1a       	sub	r14, r24
     c8a:	f1 08       	sbc	r15, r1
		
		state_error |= Timer_Start(Timer_cfg.Timer_CH_NO , 239 );
		
		/* delay required in millisecond */
		
		while (u16_delay_in_ms)
     c8c:	e1 14       	cp	r14, r1
     c8e:	f1 04       	cpc	r15, r1
     c90:	81 f7       	brne	.-32     	; 0xc72 <timerDelayMs+0x46>
			{
				u16_delay_in_ms -- ;
			}
			
		}
		state_error |= Timer_Stop(Timer_cfg.Timer_CH_NO);
     c92:	8a 81       	ldd	r24, Y+2	; 0x02
     c94:	0e 94 aa 04 	call	0x954	; 0x954 <Timer_Stop>
	
	return state_error ;
     c98:	81 2b       	or	r24, r17
     c9a:	27 96       	adiw	r28, 0x07	; 7
     c9c:	0f b6       	in	r0, 0x3f	; 63
     c9e:	f8 94       	cli
     ca0:	de bf       	out	0x3e, r29	; 62
     ca2:	0f be       	out	0x3f, r0	; 63
     ca4:	cd bf       	out	0x3d, r28	; 61
     ca6:	df 91       	pop	r29
     ca8:	cf 91       	pop	r28
     caa:	1f 91       	pop	r17
     cac:	ff 90       	pop	r15
     cae:	ef 90       	pop	r14
     cb0:	08 95       	ret

00000cb2 <Us_Init>:
 *                                                                                                  *
 *                                                                                                  *
 ***************************************************************************************************/


ERROR_STATUS Us_Init(void){
     cb2:	cf 93       	push	r28
     cb4:	df 93       	push	r29
     cb6:	00 d0       	rcall	.+0      	; 0xcb8 <Us_Init+0x6>
     cb8:	cd b7       	in	r28, 0x3d	; 61
     cba:	de b7       	in	r29, 0x3e	; 62
	
		Icu_cfg_s icuCfg;
		icuCfg.ICU_Ch_Timer = ICU_TIMER_CH0;
     cbc:	1a 82       	std	Y+2, r1	; 0x02
		icuCfg.ICU_Ch_No = ICU_CH2;
     cbe:	82 e0       	ldi	r24, 0x02	; 2
     cc0:	89 83       	std	Y+1, r24	; 0x01
		Icu_Init(&icuCfg);
     cc2:	ce 01       	movw	r24, r28
     cc4:	01 96       	adiw	r24, 0x01	; 1
     cc6:	0e 94 51 01 	call	0x2a2	; 0x2a2 <Icu_Init>
		return E_OK ;
}
     cca:	80 e0       	ldi	r24, 0x00	; 0
     ccc:	0f 90       	pop	r0
     cce:	0f 90       	pop	r0
     cd0:	df 91       	pop	r29
     cd2:	cf 91       	pop	r28
     cd4:	08 95       	ret

00000cd6 <Us_Trigger>:
 *************************************************************************************************/




ERROR_STATUS Us_Trigger(void){
     cd6:	1f 93       	push	r17
     cd8:	cf 93       	push	r28
     cda:	df 93       	push	r29
     cdc:	00 d0       	rcall	.+0      	; 0xcde <Us_Trigger+0x8>
     cde:	1f 92       	push	r1
     ce0:	cd b7       	in	r28, 0x3d	; 61
     ce2:	de b7       	in	r29, 0x3e	; 62
	
	DIO_Cfg_s dioCfgtrig;
	
	/*initialize trigger pin */
	
	dioCfgtrig.GPIO = GPIOC;
     ce4:	82 e0       	ldi	r24, 0x02	; 2
     ce6:	89 83       	std	Y+1, r24	; 0x01
	dioCfgtrig.pins = BIT7;
     ce8:	80 e8       	ldi	r24, 0x80	; 128
     cea:	8a 83       	std	Y+2, r24	; 0x02
	dioCfgtrig.dir =OUTPUT;
     cec:	8f ef       	ldi	r24, 0xFF	; 255
     cee:	8b 83       	std	Y+3, r24	; 0x03
	a_u8_error_state |= DIO_init(&dioCfgtrig);
     cf0:	ce 01       	movw	r24, r28
     cf2:	01 96       	adiw	r24, 0x01	; 1
     cf4:	0e 94 c0 00 	call	0x180	; 0x180 <DIO_init>
     cf8:	18 2f       	mov	r17, r24
	
	/*send trigger*/
	
	a_u8_error_state |=DIO_Write(GPIOC,BIT7,HIGH)	;
     cfa:	4f ef       	ldi	r20, 0xFF	; 255
     cfc:	60 e8       	ldi	r22, 0x80	; 128
     cfe:	82 e0       	ldi	r24, 0x02	; 2
     d00:	0e 94 09 01 	call	0x212	; 0x212 <DIO_Write>
     d04:	18 2b       	or	r17, r24
	a_u8_error_state |=timerDelayMs(10);
     d06:	8a e0       	ldi	r24, 0x0A	; 10
     d08:	90 e0       	ldi	r25, 0x00	; 0
     d0a:	0e 94 16 06 	call	0xc2c	; 0xc2c <timerDelayMs>
     d0e:	18 2b       	or	r17, r24
	
	a_u8_error_state |=DIO_Write(GPIOC,BIT7,LOW)	;
     d10:	40 e0       	ldi	r20, 0x00	; 0
     d12:	60 e8       	ldi	r22, 0x80	; 128
     d14:	82 e0       	ldi	r24, 0x02	; 2
     d16:	0e 94 09 01 	call	0x212	; 0x212 <DIO_Write>
	
	return a_u8_error_state;
	
}
     d1a:	81 2b       	or	r24, r17
     d1c:	0f 90       	pop	r0
     d1e:	0f 90       	pop	r0
     d20:	0f 90       	pop	r0
     d22:	df 91       	pop	r29
     d24:	cf 91       	pop	r28
     d26:	1f 91       	pop	r17
     d28:	08 95       	ret

00000d2a <Us_GetDistance>:
 *                    Distance parameter.                                                         *
 *************************************************************************************************/



ERROR_STATUS Us_GetDistance(uint16_t *Distance){
     d2a:	ff 92       	push	r15
     d2c:	0f 93       	push	r16
     d2e:	1f 93       	push	r17
     d30:	cf 93       	push	r28
     d32:	df 93       	push	r29
     d34:	00 d0       	rcall	.+0      	; 0xd36 <Us_GetDistance+0xc>
     d36:	00 d0       	rcall	.+0      	; 0xd38 <Us_GetDistance+0xe>
     d38:	cd b7       	in	r28, 0x3d	; 61
     d3a:	de b7       	in	r29, 0x3e	; 62
	
		uint8_t a_u8_error_state = E_OK ;
		uint32_t a_u32_timeOfTicks_Us  ;
		
		if (Distance==NULL)
     d3c:	00 97       	sbiw	r24, 0x00	; 0
     d3e:	b9 f0       	breq	.+46     	; 0xd6e <Us_GetDistance+0x44>
     d40:	8c 01       	movw	r16, r24
			a_u8_error_state |= E_NOK ;
		}else{
			
			// read timer from ICU
			
			a_u8_error_state |= Icu_ReadTime(ICU_TIMER_CH0,ICU_RISE_TO_FALL,&a_u32_timeOfTicks_Us);
     d42:	ae 01       	movw	r20, r28
     d44:	4f 5f       	subi	r20, 0xFF	; 255
     d46:	5f 4f       	sbci	r21, 0xFF	; 255
     d48:	61 e0       	ldi	r22, 0x01	; 1
     d4a:	80 e0       	ldi	r24, 0x00	; 0
     d4c:	0e 94 77 01 	call	0x2ee	; 0x2ee <Icu_ReadTime>
     d50:	f8 2e       	mov	r15, r24
			
			
			/* timeofticks is  time in microsecond returned from ICU (pulse time)*/
			
			
			*Distance = a_u32_timeOfTicks_Us/58 ;
     d52:	69 81       	ldd	r22, Y+1	; 0x01
     d54:	7a 81       	ldd	r23, Y+2	; 0x02
     d56:	8b 81       	ldd	r24, Y+3	; 0x03
     d58:	9c 81       	ldd	r25, Y+4	; 0x04
     d5a:	2a e3       	ldi	r18, 0x3A	; 58
     d5c:	30 e0       	ldi	r19, 0x00	; 0
     d5e:	40 e0       	ldi	r20, 0x00	; 0
     d60:	50 e0       	ldi	r21, 0x00	; 0
     d62:	0e 94 60 08 	call	0x10c0	; 0x10c0 <__udivmodsi4>
     d66:	f8 01       	movw	r30, r16
     d68:	31 83       	std	Z+1, r19	; 0x01
     d6a:	20 83       	st	Z, r18
     d6c:	02 c0       	rjmp	.+4      	; 0xd72 <Us_GetDistance+0x48>
		uint8_t a_u8_error_state = E_OK ;
		uint32_t a_u32_timeOfTicks_Us  ;
		
		if (Distance==NULL)
		{
			a_u8_error_state |= E_NOK ;
     d6e:	ff 24       	eor	r15, r15
     d70:	f3 94       	inc	r15
		
	
		
		return a_u8_error_state ;
	
     d72:	8f 2d       	mov	r24, r15
     d74:	0f 90       	pop	r0
     d76:	0f 90       	pop	r0
     d78:	0f 90       	pop	r0
     d7a:	0f 90       	pop	r0
     d7c:	df 91       	pop	r29
     d7e:	cf 91       	pop	r28
     d80:	1f 91       	pop	r17
     d82:	0f 91       	pop	r16
     d84:	ff 90       	pop	r15
     d86:	08 95       	ret

00000d88 <__divsf3>:
     d88:	0e 94 d8 06 	call	0xdb0	; 0xdb0 <__divsf3x>
     d8c:	0c 94 b9 07 	jmp	0xf72	; 0xf72 <__fp_round>
     d90:	0e 94 b2 07 	call	0xf64	; 0xf64 <__fp_pscB>
     d94:	58 f0       	brcs	.+22     	; 0xdac <__divsf3+0x24>
     d96:	0e 94 ab 07 	call	0xf56	; 0xf56 <__fp_pscA>
     d9a:	40 f0       	brcs	.+16     	; 0xdac <__divsf3+0x24>
     d9c:	29 f4       	brne	.+10     	; 0xda8 <__divsf3+0x20>
     d9e:	5f 3f       	cpi	r21, 0xFF	; 255
     da0:	29 f0       	breq	.+10     	; 0xdac <__divsf3+0x24>
     da2:	0c 94 a2 07 	jmp	0xf44	; 0xf44 <__fp_inf>
     da6:	51 11       	cpse	r21, r1
     da8:	0c 94 ed 07 	jmp	0xfda	; 0xfda <__fp_szero>
     dac:	0c 94 a8 07 	jmp	0xf50	; 0xf50 <__fp_nan>

00000db0 <__divsf3x>:
     db0:	0e 94 ca 07 	call	0xf94	; 0xf94 <__fp_split3>
     db4:	68 f3       	brcs	.-38     	; 0xd90 <__divsf3+0x8>

00000db6 <__divsf3_pse>:
     db6:	99 23       	and	r25, r25
     db8:	b1 f3       	breq	.-20     	; 0xda6 <__divsf3+0x1e>
     dba:	55 23       	and	r21, r21
     dbc:	91 f3       	breq	.-28     	; 0xda2 <__divsf3+0x1a>
     dbe:	95 1b       	sub	r25, r21
     dc0:	55 0b       	sbc	r21, r21
     dc2:	bb 27       	eor	r27, r27
     dc4:	aa 27       	eor	r26, r26
     dc6:	62 17       	cp	r22, r18
     dc8:	73 07       	cpc	r23, r19
     dca:	84 07       	cpc	r24, r20
     dcc:	38 f0       	brcs	.+14     	; 0xddc <__divsf3_pse+0x26>
     dce:	9f 5f       	subi	r25, 0xFF	; 255
     dd0:	5f 4f       	sbci	r21, 0xFF	; 255
     dd2:	22 0f       	add	r18, r18
     dd4:	33 1f       	adc	r19, r19
     dd6:	44 1f       	adc	r20, r20
     dd8:	aa 1f       	adc	r26, r26
     dda:	a9 f3       	breq	.-22     	; 0xdc6 <__divsf3_pse+0x10>
     ddc:	35 d0       	rcall	.+106    	; 0xe48 <__divsf3_pse+0x92>
     dde:	0e 2e       	mov	r0, r30
     de0:	3a f0       	brmi	.+14     	; 0xdf0 <__divsf3_pse+0x3a>
     de2:	e0 e8       	ldi	r30, 0x80	; 128
     de4:	32 d0       	rcall	.+100    	; 0xe4a <__divsf3_pse+0x94>
     de6:	91 50       	subi	r25, 0x01	; 1
     de8:	50 40       	sbci	r21, 0x00	; 0
     dea:	e6 95       	lsr	r30
     dec:	00 1c       	adc	r0, r0
     dee:	ca f7       	brpl	.-14     	; 0xde2 <__divsf3_pse+0x2c>
     df0:	2b d0       	rcall	.+86     	; 0xe48 <__divsf3_pse+0x92>
     df2:	fe 2f       	mov	r31, r30
     df4:	29 d0       	rcall	.+82     	; 0xe48 <__divsf3_pse+0x92>
     df6:	66 0f       	add	r22, r22
     df8:	77 1f       	adc	r23, r23
     dfa:	88 1f       	adc	r24, r24
     dfc:	bb 1f       	adc	r27, r27
     dfe:	26 17       	cp	r18, r22
     e00:	37 07       	cpc	r19, r23
     e02:	48 07       	cpc	r20, r24
     e04:	ab 07       	cpc	r26, r27
     e06:	b0 e8       	ldi	r27, 0x80	; 128
     e08:	09 f0       	breq	.+2      	; 0xe0c <__divsf3_pse+0x56>
     e0a:	bb 0b       	sbc	r27, r27
     e0c:	80 2d       	mov	r24, r0
     e0e:	bf 01       	movw	r22, r30
     e10:	ff 27       	eor	r31, r31
     e12:	93 58       	subi	r25, 0x83	; 131
     e14:	5f 4f       	sbci	r21, 0xFF	; 255
     e16:	3a f0       	brmi	.+14     	; 0xe26 <__divsf3_pse+0x70>
     e18:	9e 3f       	cpi	r25, 0xFE	; 254
     e1a:	51 05       	cpc	r21, r1
     e1c:	78 f0       	brcs	.+30     	; 0xe3c <__divsf3_pse+0x86>
     e1e:	0c 94 a2 07 	jmp	0xf44	; 0xf44 <__fp_inf>
     e22:	0c 94 ed 07 	jmp	0xfda	; 0xfda <__fp_szero>
     e26:	5f 3f       	cpi	r21, 0xFF	; 255
     e28:	e4 f3       	brlt	.-8      	; 0xe22 <__divsf3_pse+0x6c>
     e2a:	98 3e       	cpi	r25, 0xE8	; 232
     e2c:	d4 f3       	brlt	.-12     	; 0xe22 <__divsf3_pse+0x6c>
     e2e:	86 95       	lsr	r24
     e30:	77 95       	ror	r23
     e32:	67 95       	ror	r22
     e34:	b7 95       	ror	r27
     e36:	f7 95       	ror	r31
     e38:	9f 5f       	subi	r25, 0xFF	; 255
     e3a:	c9 f7       	brne	.-14     	; 0xe2e <__divsf3_pse+0x78>
     e3c:	88 0f       	add	r24, r24
     e3e:	91 1d       	adc	r25, r1
     e40:	96 95       	lsr	r25
     e42:	87 95       	ror	r24
     e44:	97 f9       	bld	r25, 7
     e46:	08 95       	ret
     e48:	e1 e0       	ldi	r30, 0x01	; 1
     e4a:	66 0f       	add	r22, r22
     e4c:	77 1f       	adc	r23, r23
     e4e:	88 1f       	adc	r24, r24
     e50:	bb 1f       	adc	r27, r27
     e52:	62 17       	cp	r22, r18
     e54:	73 07       	cpc	r23, r19
     e56:	84 07       	cpc	r24, r20
     e58:	ba 07       	cpc	r27, r26
     e5a:	20 f0       	brcs	.+8      	; 0xe64 <__divsf3_pse+0xae>
     e5c:	62 1b       	sub	r22, r18
     e5e:	73 0b       	sbc	r23, r19
     e60:	84 0b       	sbc	r24, r20
     e62:	ba 0b       	sbc	r27, r26
     e64:	ee 1f       	adc	r30, r30
     e66:	88 f7       	brcc	.-30     	; 0xe4a <__divsf3_pse+0x94>
     e68:	e0 95       	com	r30
     e6a:	08 95       	ret

00000e6c <__fixunssfsi>:
     e6c:	0e 94 d2 07 	call	0xfa4	; 0xfa4 <__fp_splitA>
     e70:	88 f0       	brcs	.+34     	; 0xe94 <__fixunssfsi+0x28>
     e72:	9f 57       	subi	r25, 0x7F	; 127
     e74:	98 f0       	brcs	.+38     	; 0xe9c <__fixunssfsi+0x30>
     e76:	b9 2f       	mov	r27, r25
     e78:	99 27       	eor	r25, r25
     e7a:	b7 51       	subi	r27, 0x17	; 23
     e7c:	b0 f0       	brcs	.+44     	; 0xeaa <__fixunssfsi+0x3e>
     e7e:	e1 f0       	breq	.+56     	; 0xeb8 <__fixunssfsi+0x4c>
     e80:	66 0f       	add	r22, r22
     e82:	77 1f       	adc	r23, r23
     e84:	88 1f       	adc	r24, r24
     e86:	99 1f       	adc	r25, r25
     e88:	1a f0       	brmi	.+6      	; 0xe90 <__fixunssfsi+0x24>
     e8a:	ba 95       	dec	r27
     e8c:	c9 f7       	brne	.-14     	; 0xe80 <__fixunssfsi+0x14>
     e8e:	14 c0       	rjmp	.+40     	; 0xeb8 <__fixunssfsi+0x4c>
     e90:	b1 30       	cpi	r27, 0x01	; 1
     e92:	91 f0       	breq	.+36     	; 0xeb8 <__fixunssfsi+0x4c>
     e94:	0e 94 ec 07 	call	0xfd8	; 0xfd8 <__fp_zero>
     e98:	b1 e0       	ldi	r27, 0x01	; 1
     e9a:	08 95       	ret
     e9c:	0c 94 ec 07 	jmp	0xfd8	; 0xfd8 <__fp_zero>
     ea0:	67 2f       	mov	r22, r23
     ea2:	78 2f       	mov	r23, r24
     ea4:	88 27       	eor	r24, r24
     ea6:	b8 5f       	subi	r27, 0xF8	; 248
     ea8:	39 f0       	breq	.+14     	; 0xeb8 <__fixunssfsi+0x4c>
     eaa:	b9 3f       	cpi	r27, 0xF9	; 249
     eac:	cc f3       	brlt	.-14     	; 0xea0 <__fixunssfsi+0x34>
     eae:	86 95       	lsr	r24
     eb0:	77 95       	ror	r23
     eb2:	67 95       	ror	r22
     eb4:	b3 95       	inc	r27
     eb6:	d9 f7       	brne	.-10     	; 0xeae <__fixunssfsi+0x42>
     eb8:	3e f4       	brtc	.+14     	; 0xec8 <__fixunssfsi+0x5c>
     eba:	90 95       	com	r25
     ebc:	80 95       	com	r24
     ebe:	70 95       	com	r23
     ec0:	61 95       	neg	r22
     ec2:	7f 4f       	sbci	r23, 0xFF	; 255
     ec4:	8f 4f       	sbci	r24, 0xFF	; 255
     ec6:	9f 4f       	sbci	r25, 0xFF	; 255
     ec8:	08 95       	ret

00000eca <__floatunsisf>:
     eca:	e8 94       	clt
     ecc:	09 c0       	rjmp	.+18     	; 0xee0 <__floatsisf+0x12>

00000ece <__floatsisf>:
     ece:	97 fb       	bst	r25, 7
     ed0:	3e f4       	brtc	.+14     	; 0xee0 <__floatsisf+0x12>
     ed2:	90 95       	com	r25
     ed4:	80 95       	com	r24
     ed6:	70 95       	com	r23
     ed8:	61 95       	neg	r22
     eda:	7f 4f       	sbci	r23, 0xFF	; 255
     edc:	8f 4f       	sbci	r24, 0xFF	; 255
     ede:	9f 4f       	sbci	r25, 0xFF	; 255
     ee0:	99 23       	and	r25, r25
     ee2:	a9 f0       	breq	.+42     	; 0xf0e <__floatsisf+0x40>
     ee4:	f9 2f       	mov	r31, r25
     ee6:	96 e9       	ldi	r25, 0x96	; 150
     ee8:	bb 27       	eor	r27, r27
     eea:	93 95       	inc	r25
     eec:	f6 95       	lsr	r31
     eee:	87 95       	ror	r24
     ef0:	77 95       	ror	r23
     ef2:	67 95       	ror	r22
     ef4:	b7 95       	ror	r27
     ef6:	f1 11       	cpse	r31, r1
     ef8:	f8 cf       	rjmp	.-16     	; 0xeea <__floatsisf+0x1c>
     efa:	fa f4       	brpl	.+62     	; 0xf3a <__floatsisf+0x6c>
     efc:	bb 0f       	add	r27, r27
     efe:	11 f4       	brne	.+4      	; 0xf04 <__floatsisf+0x36>
     f00:	60 ff       	sbrs	r22, 0
     f02:	1b c0       	rjmp	.+54     	; 0xf3a <__floatsisf+0x6c>
     f04:	6f 5f       	subi	r22, 0xFF	; 255
     f06:	7f 4f       	sbci	r23, 0xFF	; 255
     f08:	8f 4f       	sbci	r24, 0xFF	; 255
     f0a:	9f 4f       	sbci	r25, 0xFF	; 255
     f0c:	16 c0       	rjmp	.+44     	; 0xf3a <__floatsisf+0x6c>
     f0e:	88 23       	and	r24, r24
     f10:	11 f0       	breq	.+4      	; 0xf16 <__floatsisf+0x48>
     f12:	96 e9       	ldi	r25, 0x96	; 150
     f14:	11 c0       	rjmp	.+34     	; 0xf38 <__floatsisf+0x6a>
     f16:	77 23       	and	r23, r23
     f18:	21 f0       	breq	.+8      	; 0xf22 <__floatsisf+0x54>
     f1a:	9e e8       	ldi	r25, 0x8E	; 142
     f1c:	87 2f       	mov	r24, r23
     f1e:	76 2f       	mov	r23, r22
     f20:	05 c0       	rjmp	.+10     	; 0xf2c <__floatsisf+0x5e>
     f22:	66 23       	and	r22, r22
     f24:	71 f0       	breq	.+28     	; 0xf42 <__floatsisf+0x74>
     f26:	96 e8       	ldi	r25, 0x86	; 134
     f28:	86 2f       	mov	r24, r22
     f2a:	70 e0       	ldi	r23, 0x00	; 0
     f2c:	60 e0       	ldi	r22, 0x00	; 0
     f2e:	2a f0       	brmi	.+10     	; 0xf3a <__floatsisf+0x6c>
     f30:	9a 95       	dec	r25
     f32:	66 0f       	add	r22, r22
     f34:	77 1f       	adc	r23, r23
     f36:	88 1f       	adc	r24, r24
     f38:	da f7       	brpl	.-10     	; 0xf30 <__floatsisf+0x62>
     f3a:	88 0f       	add	r24, r24
     f3c:	96 95       	lsr	r25
     f3e:	87 95       	ror	r24
     f40:	97 f9       	bld	r25, 7
     f42:	08 95       	ret

00000f44 <__fp_inf>:
     f44:	97 f9       	bld	r25, 7
     f46:	9f 67       	ori	r25, 0x7F	; 127
     f48:	80 e8       	ldi	r24, 0x80	; 128
     f4a:	70 e0       	ldi	r23, 0x00	; 0
     f4c:	60 e0       	ldi	r22, 0x00	; 0
     f4e:	08 95       	ret

00000f50 <__fp_nan>:
     f50:	9f ef       	ldi	r25, 0xFF	; 255
     f52:	80 ec       	ldi	r24, 0xC0	; 192
     f54:	08 95       	ret

00000f56 <__fp_pscA>:
     f56:	00 24       	eor	r0, r0
     f58:	0a 94       	dec	r0
     f5a:	16 16       	cp	r1, r22
     f5c:	17 06       	cpc	r1, r23
     f5e:	18 06       	cpc	r1, r24
     f60:	09 06       	cpc	r0, r25
     f62:	08 95       	ret

00000f64 <__fp_pscB>:
     f64:	00 24       	eor	r0, r0
     f66:	0a 94       	dec	r0
     f68:	12 16       	cp	r1, r18
     f6a:	13 06       	cpc	r1, r19
     f6c:	14 06       	cpc	r1, r20
     f6e:	05 06       	cpc	r0, r21
     f70:	08 95       	ret

00000f72 <__fp_round>:
     f72:	09 2e       	mov	r0, r25
     f74:	03 94       	inc	r0
     f76:	00 0c       	add	r0, r0
     f78:	11 f4       	brne	.+4      	; 0xf7e <__fp_round+0xc>
     f7a:	88 23       	and	r24, r24
     f7c:	52 f0       	brmi	.+20     	; 0xf92 <__fp_round+0x20>
     f7e:	bb 0f       	add	r27, r27
     f80:	40 f4       	brcc	.+16     	; 0xf92 <__fp_round+0x20>
     f82:	bf 2b       	or	r27, r31
     f84:	11 f4       	brne	.+4      	; 0xf8a <__fp_round+0x18>
     f86:	60 ff       	sbrs	r22, 0
     f88:	04 c0       	rjmp	.+8      	; 0xf92 <__fp_round+0x20>
     f8a:	6f 5f       	subi	r22, 0xFF	; 255
     f8c:	7f 4f       	sbci	r23, 0xFF	; 255
     f8e:	8f 4f       	sbci	r24, 0xFF	; 255
     f90:	9f 4f       	sbci	r25, 0xFF	; 255
     f92:	08 95       	ret

00000f94 <__fp_split3>:
     f94:	57 fd       	sbrc	r21, 7
     f96:	90 58       	subi	r25, 0x80	; 128
     f98:	44 0f       	add	r20, r20
     f9a:	55 1f       	adc	r21, r21
     f9c:	59 f0       	breq	.+22     	; 0xfb4 <__fp_splitA+0x10>
     f9e:	5f 3f       	cpi	r21, 0xFF	; 255
     fa0:	71 f0       	breq	.+28     	; 0xfbe <__fp_splitA+0x1a>
     fa2:	47 95       	ror	r20

00000fa4 <__fp_splitA>:
     fa4:	88 0f       	add	r24, r24
     fa6:	97 fb       	bst	r25, 7
     fa8:	99 1f       	adc	r25, r25
     faa:	61 f0       	breq	.+24     	; 0xfc4 <__fp_splitA+0x20>
     fac:	9f 3f       	cpi	r25, 0xFF	; 255
     fae:	79 f0       	breq	.+30     	; 0xfce <__fp_splitA+0x2a>
     fb0:	87 95       	ror	r24
     fb2:	08 95       	ret
     fb4:	12 16       	cp	r1, r18
     fb6:	13 06       	cpc	r1, r19
     fb8:	14 06       	cpc	r1, r20
     fba:	55 1f       	adc	r21, r21
     fbc:	f2 cf       	rjmp	.-28     	; 0xfa2 <__fp_split3+0xe>
     fbe:	46 95       	lsr	r20
     fc0:	f1 df       	rcall	.-30     	; 0xfa4 <__fp_splitA>
     fc2:	08 c0       	rjmp	.+16     	; 0xfd4 <__fp_splitA+0x30>
     fc4:	16 16       	cp	r1, r22
     fc6:	17 06       	cpc	r1, r23
     fc8:	18 06       	cpc	r1, r24
     fca:	99 1f       	adc	r25, r25
     fcc:	f1 cf       	rjmp	.-30     	; 0xfb0 <__fp_splitA+0xc>
     fce:	86 95       	lsr	r24
     fd0:	71 05       	cpc	r23, r1
     fd2:	61 05       	cpc	r22, r1
     fd4:	08 94       	sec
     fd6:	08 95       	ret

00000fd8 <__fp_zero>:
     fd8:	e8 94       	clt

00000fda <__fp_szero>:
     fda:	bb 27       	eor	r27, r27
     fdc:	66 27       	eor	r22, r22
     fde:	77 27       	eor	r23, r23
     fe0:	cb 01       	movw	r24, r22
     fe2:	97 f9       	bld	r25, 7
     fe4:	08 95       	ret

00000fe6 <__mulsf3>:
     fe6:	0e 94 06 08 	call	0x100c	; 0x100c <__mulsf3x>
     fea:	0c 94 b9 07 	jmp	0xf72	; 0xf72 <__fp_round>
     fee:	0e 94 ab 07 	call	0xf56	; 0xf56 <__fp_pscA>
     ff2:	38 f0       	brcs	.+14     	; 0x1002 <__mulsf3+0x1c>
     ff4:	0e 94 b2 07 	call	0xf64	; 0xf64 <__fp_pscB>
     ff8:	20 f0       	brcs	.+8      	; 0x1002 <__mulsf3+0x1c>
     ffa:	95 23       	and	r25, r21
     ffc:	11 f0       	breq	.+4      	; 0x1002 <__mulsf3+0x1c>
     ffe:	0c 94 a2 07 	jmp	0xf44	; 0xf44 <__fp_inf>
    1002:	0c 94 a8 07 	jmp	0xf50	; 0xf50 <__fp_nan>
    1006:	11 24       	eor	r1, r1
    1008:	0c 94 ed 07 	jmp	0xfda	; 0xfda <__fp_szero>

0000100c <__mulsf3x>:
    100c:	0e 94 ca 07 	call	0xf94	; 0xf94 <__fp_split3>
    1010:	70 f3       	brcs	.-36     	; 0xfee <__mulsf3+0x8>

00001012 <__mulsf3_pse>:
    1012:	95 9f       	mul	r25, r21
    1014:	c1 f3       	breq	.-16     	; 0x1006 <__mulsf3+0x20>
    1016:	95 0f       	add	r25, r21
    1018:	50 e0       	ldi	r21, 0x00	; 0
    101a:	55 1f       	adc	r21, r21
    101c:	62 9f       	mul	r22, r18
    101e:	f0 01       	movw	r30, r0
    1020:	72 9f       	mul	r23, r18
    1022:	bb 27       	eor	r27, r27
    1024:	f0 0d       	add	r31, r0
    1026:	b1 1d       	adc	r27, r1
    1028:	63 9f       	mul	r22, r19
    102a:	aa 27       	eor	r26, r26
    102c:	f0 0d       	add	r31, r0
    102e:	b1 1d       	adc	r27, r1
    1030:	aa 1f       	adc	r26, r26
    1032:	64 9f       	mul	r22, r20
    1034:	66 27       	eor	r22, r22
    1036:	b0 0d       	add	r27, r0
    1038:	a1 1d       	adc	r26, r1
    103a:	66 1f       	adc	r22, r22
    103c:	82 9f       	mul	r24, r18
    103e:	22 27       	eor	r18, r18
    1040:	b0 0d       	add	r27, r0
    1042:	a1 1d       	adc	r26, r1
    1044:	62 1f       	adc	r22, r18
    1046:	73 9f       	mul	r23, r19
    1048:	b0 0d       	add	r27, r0
    104a:	a1 1d       	adc	r26, r1
    104c:	62 1f       	adc	r22, r18
    104e:	83 9f       	mul	r24, r19
    1050:	a0 0d       	add	r26, r0
    1052:	61 1d       	adc	r22, r1
    1054:	22 1f       	adc	r18, r18
    1056:	74 9f       	mul	r23, r20
    1058:	33 27       	eor	r19, r19
    105a:	a0 0d       	add	r26, r0
    105c:	61 1d       	adc	r22, r1
    105e:	23 1f       	adc	r18, r19
    1060:	84 9f       	mul	r24, r20
    1062:	60 0d       	add	r22, r0
    1064:	21 1d       	adc	r18, r1
    1066:	82 2f       	mov	r24, r18
    1068:	76 2f       	mov	r23, r22
    106a:	6a 2f       	mov	r22, r26
    106c:	11 24       	eor	r1, r1
    106e:	9f 57       	subi	r25, 0x7F	; 127
    1070:	50 40       	sbci	r21, 0x00	; 0
    1072:	9a f0       	brmi	.+38     	; 0x109a <__mulsf3_pse+0x88>
    1074:	f1 f0       	breq	.+60     	; 0x10b2 <__mulsf3_pse+0xa0>
    1076:	88 23       	and	r24, r24
    1078:	4a f0       	brmi	.+18     	; 0x108c <__mulsf3_pse+0x7a>
    107a:	ee 0f       	add	r30, r30
    107c:	ff 1f       	adc	r31, r31
    107e:	bb 1f       	adc	r27, r27
    1080:	66 1f       	adc	r22, r22
    1082:	77 1f       	adc	r23, r23
    1084:	88 1f       	adc	r24, r24
    1086:	91 50       	subi	r25, 0x01	; 1
    1088:	50 40       	sbci	r21, 0x00	; 0
    108a:	a9 f7       	brne	.-22     	; 0x1076 <__mulsf3_pse+0x64>
    108c:	9e 3f       	cpi	r25, 0xFE	; 254
    108e:	51 05       	cpc	r21, r1
    1090:	80 f0       	brcs	.+32     	; 0x10b2 <__mulsf3_pse+0xa0>
    1092:	0c 94 a2 07 	jmp	0xf44	; 0xf44 <__fp_inf>
    1096:	0c 94 ed 07 	jmp	0xfda	; 0xfda <__fp_szero>
    109a:	5f 3f       	cpi	r21, 0xFF	; 255
    109c:	e4 f3       	brlt	.-8      	; 0x1096 <__mulsf3_pse+0x84>
    109e:	98 3e       	cpi	r25, 0xE8	; 232
    10a0:	d4 f3       	brlt	.-12     	; 0x1096 <__mulsf3_pse+0x84>
    10a2:	86 95       	lsr	r24
    10a4:	77 95       	ror	r23
    10a6:	67 95       	ror	r22
    10a8:	b7 95       	ror	r27
    10aa:	f7 95       	ror	r31
    10ac:	e7 95       	ror	r30
    10ae:	9f 5f       	subi	r25, 0xFF	; 255
    10b0:	c1 f7       	brne	.-16     	; 0x10a2 <__mulsf3_pse+0x90>
    10b2:	fe 2b       	or	r31, r30
    10b4:	88 0f       	add	r24, r24
    10b6:	91 1d       	adc	r25, r1
    10b8:	96 95       	lsr	r25
    10ba:	87 95       	ror	r24
    10bc:	97 f9       	bld	r25, 7
    10be:	08 95       	ret

000010c0 <__udivmodsi4>:
    10c0:	a1 e2       	ldi	r26, 0x21	; 33
    10c2:	1a 2e       	mov	r1, r26
    10c4:	aa 1b       	sub	r26, r26
    10c6:	bb 1b       	sub	r27, r27
    10c8:	fd 01       	movw	r30, r26
    10ca:	0d c0       	rjmp	.+26     	; 0x10e6 <__udivmodsi4_ep>

000010cc <__udivmodsi4_loop>:
    10cc:	aa 1f       	adc	r26, r26
    10ce:	bb 1f       	adc	r27, r27
    10d0:	ee 1f       	adc	r30, r30
    10d2:	ff 1f       	adc	r31, r31
    10d4:	a2 17       	cp	r26, r18
    10d6:	b3 07       	cpc	r27, r19
    10d8:	e4 07       	cpc	r30, r20
    10da:	f5 07       	cpc	r31, r21
    10dc:	20 f0       	brcs	.+8      	; 0x10e6 <__udivmodsi4_ep>
    10de:	a2 1b       	sub	r26, r18
    10e0:	b3 0b       	sbc	r27, r19
    10e2:	e4 0b       	sbc	r30, r20
    10e4:	f5 0b       	sbc	r31, r21

000010e6 <__udivmodsi4_ep>:
    10e6:	66 1f       	adc	r22, r22
    10e8:	77 1f       	adc	r23, r23
    10ea:	88 1f       	adc	r24, r24
    10ec:	99 1f       	adc	r25, r25
    10ee:	1a 94       	dec	r1
    10f0:	69 f7       	brne	.-38     	; 0x10cc <__udivmodsi4_loop>
    10f2:	60 95       	com	r22
    10f4:	70 95       	com	r23
    10f6:	80 95       	com	r24
    10f8:	90 95       	com	r25
    10fa:	9b 01       	movw	r18, r22
    10fc:	ac 01       	movw	r20, r24
    10fe:	bd 01       	movw	r22, r26
    1100:	cf 01       	movw	r24, r30
    1102:	08 95       	ret

00001104 <_exit>:
    1104:	f8 94       	cli

00001106 <__stop_program>:
    1106:	ff cf       	rjmp	.-2      	; 0x1106 <__stop_program>
